TN:
SF:/usr/include/c++/9/ext/type_traits.h
FN:152,_ZN9__gnu_cxx17__is_null_pointerIcEEbPT_
FNDA:0,_ZN9__gnu_cxx17__is_null_pointerIcEEbPT_
FN:152,_ZN9__gnu_cxx17__is_null_pointerIKcEEbPT_
FNDA:0,_ZN9__gnu_cxx17__is_null_pointerIKcEEbPT_
DA:152,0
DA:153,0
DA:152,0
DA:153,0
end_of_record
SF:/usr/include/c++/9/bits/stl_pair.h
FN:341,_ZNSt4pairImmEC2ImmLb1EEEOT_OT0_
FNDA:24,_ZNSt4pairImmEC2ImmLb1EEEOT_OT0_
FN:341,_ZNSt4pairIiiEC2IRiS2_Lb1EEEOT_OT0_
FNDA:1888,_ZNSt4pairIiiEC2IRiS2_Lb1EEEOT_OT0_
FN:524,_ZSt9make_pairImmESt4pairINSt17__decay_and_stripIT_E6__typeENS1_IT0_E6__typeEEOS2_OS5_
FNDA:24,_ZSt9make_pairImmESt4pairINSt17__decay_and_stripIT_E6__typeENS1_IT0_E6__typeEEOS2_OS5_
DA:341,24
DA:342,24
DA:341,1888
DA:342,1888
DA:524,24
DA:529,24
end_of_record
SF:/usr/include/c++/9/bits/stl_numeric.h
FN:87,_ZSt4iotaIN9__gnu_cxx17__normal_iteratorIPiSt6vectorIiSaIiEEEEiEvT_S7_T0_
FNDA:6,_ZSt4iotaIN9__gnu_cxx17__normal_iteratorIPiSt6vectorIiSaIiEEEEiEvT_S7_T0_
DA:87,60
DA:96,60
DA:98,54
DA:99,54
DA:101,6
end_of_record
SF:/usr/include/c++/9/new
FN:173,_ZnwmPv
FNDA:6194,_ZnwmPv
FN:179,_ZdlPvS_
FNDA:0,_ZdlPvS_
DA:173,6194
DA:174,6194
DA:179,0
end_of_record
SF:/usr/include/c++/9/bits/alloc_traits.h
FN:442,_ZNSt16allocator_traitsISaIcEE8allocateERS0_m
FNDA:3911,_ZNSt16allocator_traitsISaIcEE8allocateERS0_m
FN:442,_ZNSt16allocator_traitsISaISt4pairIiiEEE8allocateERS2_m
FNDA:27,_ZNSt16allocator_traitsISaISt4pairIiiEEE8allocateERS2_m
FN:442,_ZNSt16allocator_traitsISaISt6vectorIcSaIcEEEE8allocateERS3_m
FNDA:430,_ZNSt16allocator_traitsISaISt6vectorIcSaIcEEEE8allocateERS3_m
FN:442,_ZNSt16allocator_traitsISaIiEE8allocateERS0_m
FNDA:9,_ZNSt16allocator_traitsISaIiEE8allocateERS0_m
FN:442,_ZNSt16allocator_traitsISaISt6vectorIS0_IcSaIcEESaIS2_EEEE8allocateERS5_m
FNDA:111,_ZNSt16allocator_traitsISaISt6vectorIS0_IcSaIcEESaIS2_EEEE8allocateERS5_m
FN:468,_ZNSt16allocator_traitsISaISt6vectorIS0_IcSaIcEESaIS2_EEEE10deallocateERS5_PS4_m
FNDA:111,_ZNSt16allocator_traitsISaISt6vectorIS0_IcSaIcEESaIS2_EEEE10deallocateERS5_PS4_m
FN:468,_ZNSt16allocator_traitsISaISt6vectorIcSaIcEEEE10deallocateERS3_PS2_m
FNDA:430,_ZNSt16allocator_traitsISaISt6vectorIcSaIcEEEE10deallocateERS3_PS2_m
FN:468,_ZNSt16allocator_traitsISaIiEE10deallocateERS0_Pim
FNDA:9,_ZNSt16allocator_traitsISaIiEE10deallocateERS0_Pim
FN:468,_ZNSt16allocator_traitsISaISt4pairIiiEEE10deallocateERS2_PS1_m
FNDA:27,_ZNSt16allocator_traitsISaISt4pairIiiEEE10deallocateERS2_PS1_m
FN:468,_ZNSt16allocator_traitsISaIcEE10deallocateERS0_Pcm
FNDA:3911,_ZNSt16allocator_traitsISaIcEE10deallocateERS0_Pcm
FN:481,_ZNSt16allocator_traitsISaISt4pairIiiEEE9constructIS1_JS1_EEEvRS2_PT_DpOT0_
FNDA:2108,_ZNSt16allocator_traitsISaISt4pairIiiEEE9constructIS1_JS1_EEEvRS2_PT_DpOT0_
FN:481,_ZNSt16allocator_traitsISaIcEE9constructIcJRKcEEEvRS0_PT_DpOT0_
FNDA:0,_ZNSt16allocator_traitsISaIcEE9constructIcJRKcEEEvRS0_PT_DpOT0_
FN:481,_ZNSt16allocator_traitsISaISt6vectorIcSaIcEEEE9constructIS2_JS2_EEEvRS3_PT_DpOT0_
FNDA:0,_ZNSt16allocator_traitsISaISt6vectorIcSaIcEEEE9constructIS2_JS2_EEEvRS3_PT_DpOT0_
FN:481,_ZNSt16allocator_traitsISaISt6vectorIS0_IcSaIcEESaIS2_EEEE9constructIS4_JRKS4_EEEvRS5_PT_DpOT0_
FNDA:107,_ZNSt16allocator_traitsISaISt6vectorIS0_IcSaIcEESaIS2_EEEE9constructIS4_JRKS4_EEEvRS5_PT_DpOT0_
FN:481,_ZNSt16allocator_traitsISaISt6vectorIS0_IcSaIcEESaIS2_EEEE9constructIS4_JS4_EEEvRS5_PT_DpOT0_
FNDA:2,_ZNSt16allocator_traitsISaISt6vectorIS0_IcSaIcEESaIS2_EEEE9constructIS4_JS4_EEEvRS5_PT_DpOT0_
FN:494,_ZNSt16allocator_traitsISaIcEE7destroyIcEEvRS0_PT_
FNDA:0,_ZNSt16allocator_traitsISaIcEE7destroyIcEEvRS0_PT_
FN:494,_ZNSt16allocator_traitsISaISt6vectorIS0_IcSaIcEESaIS2_EEEE7destroyIS4_EEvRS5_PT_
FNDA:2,_ZNSt16allocator_traitsISaISt6vectorIS0_IcSaIcEESaIS2_EEEE7destroyIS4_EEvRS5_PT_
FN:494,_ZNSt16allocator_traitsISaISt4pairIiiEEE7destroyIS1_EEvRS2_PT_
FNDA:220,_ZNSt16allocator_traitsISaISt4pairIiiEEE7destroyIS1_EEvRS2_PT_
FN:494,_ZNSt16allocator_traitsISaISt6vectorIcSaIcEEEE7destroyIS2_EEvRS3_PT_
FNDA:0,_ZNSt16allocator_traitsISaISt6vectorIcSaIcEEEE7destroyIS2_EEvRS3_PT_
FN:504,_ZNSt16allocator_traitsISaISt4pairIiiEEE8max_sizeERKS2_
FNDA:54,_ZNSt16allocator_traitsISaISt4pairIiiEEE8max_sizeERKS2_
FN:504,_ZNSt16allocator_traitsISaIcEE8max_sizeERKS0_
FNDA:41,_ZNSt16allocator_traitsISaIcEE8max_sizeERKS0_
FN:504,_ZNSt16allocator_traitsISaIiEE8max_sizeERKS0_
FNDA:8,_ZNSt16allocator_traitsISaIiEE8max_sizeERKS0_
FN:504,_ZNSt16allocator_traitsISaISt6vectorIcSaIcEEEE8max_sizeERKS3_
FNDA:9,_ZNSt16allocator_traitsISaISt6vectorIcSaIcEEEE8max_sizeERKS3_
FN:504,_ZNSt16allocator_traitsISaISt6vectorIS0_IcSaIcEESaIS2_EEEE8max_sizeERKS5_
FNDA:16,_ZNSt16allocator_traitsISaISt6vectorIS0_IcSaIcEESaIS2_EEEE8max_sizeERKS5_
FN:513,_ZNSt16allocator_traitsISaISt6vectorIS0_IcSaIcEESaIS2_EEEE37select_on_container_copy_constructionERKS5_
FNDA:103,_ZNSt16allocator_traitsISaISt6vectorIS0_IcSaIcEESaIS2_EEEE37select_on_container_copy_constructionERKS5_
FN:513,_ZNSt16allocator_traitsISaIiEE37select_on_container_copy_constructionERKS0_
FNDA:1,_ZNSt16allocator_traitsISaIiEE37select_on_container_copy_constructionERKS0_
FN:513,_ZNSt16allocator_traitsISaISt6vectorIcSaIcEEEE37select_on_container_copy_constructionERKS3_
FNDA:421,_ZNSt16allocator_traitsISaISt6vectorIcSaIcEEEE37select_on_container_copy_constructionERKS3_
FN:513,_ZNSt16allocator_traitsISaIcEE37select_on_container_copy_constructionERKS0_
FNDA:3870,_ZNSt16allocator_traitsISaIcEE37select_on_container_copy_constructionERKS0_
FN:544,_ZSt18__do_alloc_on_moveISaISt6vectorIcSaIcEEEEvRT_S5_St17integral_constantIbLb1EE
FNDA:0,_ZSt18__do_alloc_on_moveISaISt6vectorIcSaIcEEEEvRT_S5_St17integral_constantIbLb1EE
FN:552,_ZSt15__alloc_on_moveISaISt6vectorIcSaIcEEEEvRT_S5_
FNDA:0,_ZSt15__alloc_on_moveISaISt6vectorIcSaIcEEEEvRT_S5_
DA:442,27
DA:443,27
DA:442,430
DA:443,430
DA:442,9
DA:443,9
DA:442,111
DA:443,111
DA:442,3911
DA:443,3911
DA:468,430
DA:469,430
DA:468,9
DA:469,9
DA:468,27
DA:469,27
DA:468,111
DA:469,111
DA:468,3911
DA:469,3911
DA:481,0
DA:483,0
DA:481,2
DA:483,2
DA:481,2108
DA:483,2108
DA:481,0
DA:483,0
DA:481,107
DA:483,107
DA:494,0
DA:496,0
DA:494,220
DA:496,220
DA:494,0
DA:496,0
DA:494,2
DA:496,2
DA:504,54
DA:505,54
DA:504,16
DA:505,16
DA:504,9
DA:505,9
DA:504,8
DA:505,8
DA:504,41
DA:505,41
DA:513,1
DA:514,1
DA:513,103
DA:514,103
DA:513,421
DA:514,421
DA:513,3870
DA:514,3870
DA:544,0
DA:545,0
DA:552,0
DA:556,0
DA:557,0
end_of_record
SF:/usr/include/c++/9/bits/uniform_int_dist.h
FN:74,_ZNSt24uniform_int_distributionImE10param_typeC2Emm
FNDA:24,_ZNSt24uniform_int_distributionImE10param_typeC2Emm
FN:82,_ZNKSt24uniform_int_distributionImE10param_type1aEv
FNDA:48,_ZNKSt24uniform_int_distributionImE10param_type1aEv
FN:86,_ZNKSt24uniform_int_distributionImE10param_type1bEv
FNDA:24,_ZNKSt24uniform_int_distributionImE10param_type1bEv
FN:106,_ZNSt24uniform_int_distributionImEC2Ev
FNDA:0,_ZNSt24uniform_int_distributionImEC2Ev
FN:112,_ZNSt24uniform_int_distributionImEC2Emm
FNDA:24,_ZNSt24uniform_int_distributionImEC2Emm
FN:172,_ZNSt24uniform_int_distributionImEclISt23mersenne_twister_engineImLm32ELm624ELm397ELm31ELm2567483615ELm11ELm4294967295ELm7ELm2636928640ELm15ELm4022730752ELm18ELm1812433253EEEEmRT_
FNDA:24,_ZNSt24uniform_int_distributionImEclISt23mersenne_twister_engineImLm32ELm624ELm397ELm31ELm2567483615ELm11ELm4294967295ELm7ELm2636928640ELm15ELm4022730752ELm18ELm1812433253EEEEmRT_
FN:225,_ZNSt24uniform_int_distributionImEclISt23mersenne_twister_engineImLm32ELm624ELm397ELm31ELm2567483615ELm11ELm4294967295ELm7ELm2636928640ELm15ELm4022730752ELm18ELm1812433253EEEEmRT_RKNS0_10param_typeE
FNDA:24,_ZNSt24uniform_int_distributionImEclISt23mersenne_twister_engineImLm32ELm624ELm397ELm31ELm2567483615ELm11ELm4294967295ELm7ELm2636928640ELm15ELm4022730752ELm18ELm1812433253EEEEmRT_RKNS0_10param_typeE
DA:74,24
DA:76,24
DA:79,24
DA:82,48
DA:83,48
DA:86,24
DA:87,24
DA:106,0
DA:112,24
DA:114,24
DA:115,24
DA:172,24
DA:173,24
DA:225,24
DA:235,24
DA:236,24
DA:237,24
DA:238,24
DA:239,24
DA:243,24
DA:246,24
DA:247,24
DA:248,24
DA:249,0
DA:250,24
DA:251,24
DA:252,24
DA:254,0
DA:272,0
DA:274,0
DA:275,0
DA:277,0
DA:279,0
DA:282,0
DA:284,24
end_of_record
SF:/usr/include/gtest/gtest.h
FN:293,_ZN7testing15AssertionResultC2IbEERKT_PNSt9enable_ifIXntsrSt14is_convertibleIS2_S0_E5valueEvE4typeE
FNDA:4,_ZN7testing15AssertionResultC2IbEERKT_PNSt9enable_ifIXntsrSt14is_convertibleIS2_S0_E5valueEvE4typeE
FN:312,_ZNK7testing15AssertionResultcvbEv
FNDA:13,_ZNK7testing15AssertionResultcvbEv
FN:321,_ZNK7testing15AssertionResult7messageEv
FNDA:0,_ZNK7testing15AssertionResult7messageEv
FN:325,_ZNK7testing15AssertionResult15failure_messageEv
FNDA:0,_ZNK7testing15AssertionResult15failure_messageEv
FN:328,_ZN7testing15AssertionResultlsIA5_cEERS0_RKT_
FNDA:0,_ZN7testing15AssertionResultlsIA5_cEERS0_RKT_
FN:328,_ZN7testing15AssertionResultlsINSt7__cxx1112basic_stringIcSt11char_traitsIcESaIcEEEEERS0_RKT_
FNDA:0,_ZN7testing15AssertionResultlsINSt7__cxx1112basic_stringIcSt11char_traitsIcESaIcEEEEERS0_RKT_
FN:328,_ZN7testing15AssertionResultlsIA3_cEERS0_RKT_
FNDA:0,_ZN7testing15AssertionResultlsIA3_cEERS0_RKT_
FN:328,_ZN7testing15AssertionResultlsIPKcEERS0_RKT_
FNDA:0,_ZN7testing15AssertionResultlsIPKcEERS0_RKT_
FN:328,_ZN7testing15AssertionResultlsIA12_cEERS0_RKT_
FNDA:0,_ZN7testing15AssertionResultlsIA12_cEERS0_RKT_
FN:343,_ZN7testing15AssertionResult13AppendMessageERKNS_7MessageE
FNDA:0,_ZN7testing15AssertionResult13AppendMessageERKNS_7MessageE
FN:417,_ZN7testing4Test14SetUpTestSuiteEv
FNDA:0,_ZN7testing4Test14SetUpTestSuiteEv
FN:427,_ZN7testing4Test17TearDownTestSuiteEv
FNDA:0,_ZN7testing4Test17TearDownTestSuiteEv
FN:431,_ZN7testing4Test16TearDownTestCaseEv
FNDA:0,_ZN7testing4Test16TearDownTestCaseEv
FN:432,_ZN7testing4Test13SetUpTestCaseEv
FNDA:0,_ZN7testing4Test13SetUpTestCaseEv
FN:513,_ZN7testing4Test5SetupEv
FNDA:0,_ZN7testing4Test5SetupEv
FN:1504,_ZN7testing8internal18CmpHelperEQFailureISt6vectorIS2_IcSaIcEESaIS4_EES6_EENS_15AssertionResultEPKcS9_RKT_RKT0_
FNDA:0,_ZN7testing8internal18CmpHelperEQFailureISt6vectorIS2_IcSaIcEESaIS4_EES6_EENS_15AssertionResultEPKcS9_RKT_RKT0_
FN:1504,_ZN7testing8internal18CmpHelperEQFailureIccEENS_15AssertionResultEPKcS4_RKT_RKT0_
FNDA:0,_ZN7testing8internal18CmpHelperEQFailureIccEENS_15AssertionResultEPKcS4_RKT_RKT0_
FN:1504,_ZN7testing8internal18CmpHelperEQFailureImiEENS_15AssertionResultEPKcS4_RKT_RKT0_
FNDA:0,_ZN7testing8internal18CmpHelperEQFailureImiEENS_15AssertionResultEPKcS4_RKT_RKT0_
FN:1504,_ZN7testing8internal18CmpHelperEQFailureIiiEENS_15AssertionResultEPKcS4_RKT_RKT0_
FNDA:0,_ZN7testing8internal18CmpHelperEQFailureIiiEENS_15AssertionResultEPKcS4_RKT_RKT0_
FN:1523,_ZN7testing8internal11CmpHelperEQIccEENS_15AssertionResultEPKcS4_RKT_RKT0_
FNDA:1,_ZN7testing8internal11CmpHelperEQIccEENS_15AssertionResultEPKcS4_RKT_RKT0_
FN:1523,_ZN7testing8internal11CmpHelperEQIiiEENS_15AssertionResultEPKcS4_RKT_RKT0_
FNDA:2,_ZN7testing8internal11CmpHelperEQIiiEENS_15AssertionResultEPKcS4_RKT_RKT0_
FN:1523,_ZN7testing8internal11CmpHelperEQImiEENS_15AssertionResultEPKcS4_RKT_RKT0_
FNDA:2,_ZN7testing8internal11CmpHelperEQImiEENS_15AssertionResultEPKcS4_RKT_RKT0_
FN:1523,_ZN7testing8internal11CmpHelperEQISt6vectorIS2_IcSaIcEESaIS4_EES6_EENS_15AssertionResultEPKcS9_RKT_RKT0_
FNDA:1,_ZN7testing8internal11CmpHelperEQISt6vectorIS2_IcSaIcEESaIS4_EES6_EENS_15AssertionResultEPKcS9_RKT_RKT0_
FN:1551,_ZN7testing8internal8EqHelper7CompareIccLPv0EEENS_15AssertionResultEPKcS6_RKT_RKT0_
FNDA:1,_ZN7testing8internal8EqHelper7CompareIccLPv0EEENS_15AssertionResultEPKcS6_RKT_RKT0_
FN:1551,_ZN7testing8internal8EqHelper7CompareISt6vectorIS3_IcSaIcEESaIS5_EES7_LPv0EEENS_15AssertionResultEPKcSB_RKT_RKT0_
FNDA:1,_ZN7testing8internal8EqHelper7CompareISt6vectorIS3_IcSaIcEESaIS5_EES7_LPv0EEENS_15AssertionResultEPKcSB_RKT_RKT0_
FN:1551,_ZN7testing8internal8EqHelper7CompareImiLPv0EEENS_15AssertionResultEPKcS6_RKT_RKT0_
FNDA:2,_ZN7testing8internal8EqHelper7CompareImiLPv0EEENS_15AssertionResultEPKcS6_RKT_RKT0_
FN:1551,_ZN7testing8internal8EqHelper7CompareIiiLPv0EEENS_15AssertionResultEPKcS6_RKT_RKT0_
FNDA:2,_ZN7testing8internal8EqHelper7CompareIiiLPv0EEENS_15AssertionResultEPKcS6_RKT_RKT0_
FN:1585,_ZN7testing8internal18CmpHelperOpFailureIiiEENS_15AssertionResultEPKcS4_RKT_RKT0_S4_
FNDA:0,_ZN7testing8internal18CmpHelperOpFailureIiiEENS_15AssertionResultEPKcS4_RKT_RKT0_S4_
FN:1585,_ZN7testing8internal18CmpHelperOpFailureIccEENS_15AssertionResultEPKcS4_RKT_RKT0_S4_
FNDA:0,_ZN7testing8internal18CmpHelperOpFailureIccEENS_15AssertionResultEPKcS4_RKT_RKT0_S4_
FN:1585,_ZN7testing8internal18CmpHelperOpFailureISt6vectorIiSaIiEES4_EENS_15AssertionResultEPKcS7_RKT_RKT0_S7_
FNDA:0,_ZN7testing8internal18CmpHelperOpFailureISt6vectorIiSaIiEES4_EENS_15AssertionResultEPKcS7_RKT_RKT0_S7_
FN:1621,_ZN7testing8internal11CmpHelperNEIccEENS_15AssertionResultEPKcS4_RKT_RKT0_
FNDA:1,_ZN7testing8internal11CmpHelperNEIccEENS_15AssertionResultEPKcS4_RKT_RKT0_
FN:1621,_ZN7testing8internal11CmpHelperNEISt6vectorIiSaIiEES4_EENS_15AssertionResultEPKcS7_RKT_RKT0_
FNDA:1,_ZN7testing8internal11CmpHelperNEISt6vectorIiSaIiEES4_EENS_15AssertionResultEPKcS7_RKT_RKT0_
FN:1621,_ZN7testing8internal11CmpHelperNEIiiEENS_15AssertionResultEPKcS4_RKT_RKT0_
FNDA:1,_ZN7testing8internal11CmpHelperNEIiiEENS_15AssertionResultEPKcS4_RKT_RKT0_
FN:1623,_ZN7testing8internal11CmpHelperLEIiiEENS_15AssertionResultEPKcS4_RKT_RKT0_
FNDA:0,_ZN7testing8internal11CmpHelperLEIiiEENS_15AssertionResultEPKcS4_RKT_RKT0_
FN:1627,_ZN7testing8internal11CmpHelperGEIiiEENS_15AssertionResultEPKcS4_RKT_RKT0_
FNDA:0,_ZN7testing8internal11CmpHelperGEIiiEENS_15AssertionResultEPKcS4_RKT_RKT0_
FN:2472,_Z13RUN_ALL_TESTSv
FNDA:1,_Z13RUN_ALL_TESTSv
DA:293,4
DA:299,4
DA:312,13
DA:321,0
DA:322,0
DA:325,0
DA:328,0
DA:329,0
DA:330,0
DA:328,0
DA:329,0
DA:330,0
DA:328,0
DA:329,0
DA:330,0
DA:328,0
DA:329,0
DA:330,0
DA:328,0
DA:329,0
DA:330,0
DA:343,0
DA:344,0
DA:345,0
DA:346,0
DA:417,0
DA:427,0
DA:431,0
DA:432,0
DA:513,0
DA:1504,0
DA:1511,0
DA:1504,0
DA:1511,0
DA:1504,0
DA:1511,0
DA:1504,0
DA:1511,0
DA:1523,1
DA:1527,1
DA:1528,1
DA:1531,0
DA:1523,1
DA:1527,1
DA:1528,1
DA:1531,0
DA:1523,2
DA:1527,2
DA:1528,2
DA:1531,0
DA:1523,2
DA:1527,2
DA:1528,2
DA:1531,0
DA:1551,1
DA:1554,1
DA:1551,1
DA:1554,1
DA:1551,2
DA:1554,2
DA:1551,2
DA:1554,2
DA:1585,0
DA:1589,0
DA:1590,0
DA:1591,0
DA:1585,0
DA:1589,0
DA:1590,0
DA:1591,0
DA:1585,0
DA:1589,0
DA:1590,0
DA:1591,0
DA:1621,1
DA:1621,1
DA:1621,1
DA:1623,0
DA:1627,0
DA:2472,1
DA:2473,1
end_of_record
SF:/usr/include/c++/9/bits/stl_iterator.h
FN:803,_ZN9__gnu_cxx17__normal_iteratorIPiSt6vectorIiSaIiEEEC2ERKS1_
FNDA:126,_ZN9__gnu_cxx17__normal_iteratorIPiSt6vectorIiSaIiEEEC2ERKS1_
FN:803,_ZN9__gnu_cxx17__normal_iteratorIPKSt6vectorIcSaIcEES1_IS3_SaIS3_EEEC2ERKS5_
FNDA:845,_ZN9__gnu_cxx17__normal_iteratorIPKSt6vectorIcSaIcEES1_IS3_SaIS3_EEEC2ERKS5_
FN:803,_ZN9__gnu_cxx17__normal_iteratorIPSt6vectorIS1_IcSaIcEESaIS3_EES1_IS5_SaIS5_EEEC2ERKS6_
FNDA:16,_ZN9__gnu_cxx17__normal_iteratorIPSt6vectorIS1_IcSaIcEESaIS3_EES1_IS5_SaIS5_EEEC2ERKS6_
FN:803,_ZN9__gnu_cxx17__normal_iteratorIPKSt6vectorIS1_IcSaIcEESaIS3_EES1_IS5_SaIS5_EEEC2ERKS7_
FNDA:206,_ZN9__gnu_cxx17__normal_iteratorIPKSt6vectorIS1_IcSaIcEESaIS3_EES1_IS5_SaIS5_EEEC2ERKS7_
FN:803,_ZN9__gnu_cxx17__normal_iteratorIPcSt6vectorIcSaIcEEEC2ERKS1_
FNDA:0,_ZN9__gnu_cxx17__normal_iteratorIPcSt6vectorIcSaIcEEEC2ERKS1_
FN:803,_ZN9__gnu_cxx17__normal_iteratorIPKcSt6vectorIcSaIcEEEC2ERKS2_
FNDA:7767,_ZN9__gnu_cxx17__normal_iteratorIPKcSt6vectorIcSaIcEEEC2ERKS2_
FN:803,_ZN9__gnu_cxx17__normal_iteratorIPKiSt6vectorIiSaIiEEEC2ERKS2_
FNDA:5,_ZN9__gnu_cxx17__normal_iteratorIPKiSt6vectorIiSaIiEEEC2ERKS2_
FN:803,_ZN9__gnu_cxx17__normal_iteratorIPSt4pairIiiESt6vectorIS2_SaIS2_EEEC2ERKS3_
FNDA:54,_ZN9__gnu_cxx17__normal_iteratorIPSt4pairIiiESt6vectorIS2_SaIS2_EEEC2ERKS3_
FN:803,_ZN9__gnu_cxx17__normal_iteratorIPSt6vectorIcSaIcEES1_IS3_SaIS3_EEEC2ERKS4_
FNDA:0,_ZN9__gnu_cxx17__normal_iteratorIPSt6vectorIcSaIcEES1_IS3_SaIS3_EEEC2ERKS4_
FN:816,_ZNK9__gnu_cxx17__normal_iteratorIPKSt6vectorIS1_IcSaIcEESaIS3_EES1_IS5_SaIS5_EEEdeEv
FNDA:107,_ZNK9__gnu_cxx17__normal_iteratorIPKSt6vectorIS1_IcSaIcEESaIS3_EES1_IS5_SaIS5_EEEdeEv
FN:816,_ZNK9__gnu_cxx17__normal_iteratorIPiSt6vectorIiSaIiEEEdeEv
FNDA:150,_ZNK9__gnu_cxx17__normal_iteratorIPiSt6vectorIiSaIiEEEdeEv
FN:816,_ZNK9__gnu_cxx17__normal_iteratorIPKSt6vectorIcSaIcEES1_IS3_SaIS3_EEEdeEv
FNDA:3789,_ZNK9__gnu_cxx17__normal_iteratorIPKSt6vectorIcSaIcEES1_IS3_SaIS3_EEEdeEv
FN:816,_ZNK9__gnu_cxx17__normal_iteratorIPKcSt6vectorIcSaIcEEEdeEv
FNDA:0,_ZNK9__gnu_cxx17__normal_iteratorIPKcSt6vectorIcSaIcEEEdeEv
FN:816,_ZNK9__gnu_cxx17__normal_iteratorIPKiSt6vectorIiSaIiEEEdeEv
FNDA:0,_ZNK9__gnu_cxx17__normal_iteratorIPKiSt6vectorIiSaIiEEEdeEv
FN:824,_ZN9__gnu_cxx17__normal_iteratorIPKcSt6vectorIcSaIcEEEppEv
FNDA:0,_ZN9__gnu_cxx17__normal_iteratorIPKcSt6vectorIcSaIcEEEppEv
FN:824,_ZN9__gnu_cxx17__normal_iteratorIPKSt6vectorIS1_IcSaIcEESaIS3_EES1_IS5_SaIS5_EEEppEv
FNDA:107,_ZN9__gnu_cxx17__normal_iteratorIPKSt6vectorIS1_IcSaIcEESaIS3_EES1_IS5_SaIS5_EEEppEv
FN:824,_ZN9__gnu_cxx17__normal_iteratorIPKSt6vectorIcSaIcEES1_IS3_SaIS3_EEEppEv
FNDA:3789,_ZN9__gnu_cxx17__normal_iteratorIPKSt6vectorIcSaIcEES1_IS3_SaIS3_EEEppEv
FN:824,_ZN9__gnu_cxx17__normal_iteratorIPKiSt6vectorIiSaIiEEEppEv
FNDA:0,_ZN9__gnu_cxx17__normal_iteratorIPKiSt6vectorIiSaIiEEEppEv
FN:824,_ZN9__gnu_cxx17__normal_iteratorIPiSt6vectorIiSaIiEEEppEv
FNDA:54,_ZN9__gnu_cxx17__normal_iteratorIPiSt6vectorIiSaIiEEEppEv
FN:831,_ZN9__gnu_cxx17__normal_iteratorIPiSt6vectorIiSaIiEEEppEi
FNDA:48,_ZN9__gnu_cxx17__normal_iteratorIPiSt6vectorIiSaIiEEEppEi
FN:856,_ZNK9__gnu_cxx17__normal_iteratorIPiSt6vectorIiSaIiEEEplEl
FNDA:54,_ZNK9__gnu_cxx17__normal_iteratorIPiSt6vectorIiSaIiEEEplEl
FN:868,_ZNK9__gnu_cxx17__normal_iteratorIPKcSt6vectorIcSaIcEEE4baseEv
FNDA:7767,_ZNK9__gnu_cxx17__normal_iteratorIPKcSt6vectorIcSaIcEEE4baseEv
FN:868,_ZNK9__gnu_cxx17__normal_iteratorIPSt6vectorIcSaIcEES1_IS3_SaIS3_EEE4baseEv
FNDA:0,_ZNK9__gnu_cxx17__normal_iteratorIPSt6vectorIcSaIcEES1_IS3_SaIS3_EEE4baseEv
FN:868,_ZNK9__gnu_cxx17__normal_iteratorIPSt6vectorIS1_IcSaIcEESaIS3_EES1_IS5_SaIS5_EEE4baseEv
FNDA:32,_ZNK9__gnu_cxx17__normal_iteratorIPSt6vectorIS1_IcSaIcEESaIS3_EES1_IS5_SaIS5_EEE4baseEv
FN:868,_ZNK9__gnu_cxx17__normal_iteratorIPKiSt6vectorIiSaIiEEE4baseEv
FNDA:5,_ZNK9__gnu_cxx17__normal_iteratorIPKiSt6vectorIiSaIiEEE4baseEv
FN:868,_ZNK9__gnu_cxx17__normal_iteratorIPSt4pairIiiESt6vectorIS2_SaIS2_EEE4baseEv
FNDA:108,_ZNK9__gnu_cxx17__normal_iteratorIPSt4pairIiiESt6vectorIS2_SaIS2_EEE4baseEv
FN:868,_ZNK9__gnu_cxx17__normal_iteratorIPKSt6vectorIS1_IcSaIcEESaIS3_EES1_IS5_SaIS5_EEE4baseEv
FNDA:420,_ZNK9__gnu_cxx17__normal_iteratorIPKSt6vectorIS1_IcSaIcEESaIS3_EES1_IS5_SaIS5_EEE4baseEv
FN:868,_ZNK9__gnu_cxx17__normal_iteratorIPiSt6vectorIiSaIiEEE4baseEv
FNDA:252,_ZNK9__gnu_cxx17__normal_iteratorIPiSt6vectorIiSaIiEEE4baseEv
FN:868,_ZNK9__gnu_cxx17__normal_iteratorIPKSt6vectorIcSaIcEES1_IS3_SaIS3_EEE4baseEv
FNDA:8423,_ZNK9__gnu_cxx17__normal_iteratorIPKSt6vectorIcSaIcEES1_IS3_SaIS3_EEE4baseEv
FN:868,_ZNK9__gnu_cxx17__normal_iteratorIPcSt6vectorIcSaIcEEE4baseEv
FNDA:0,_ZNK9__gnu_cxx17__normal_iteratorIPcSt6vectorIcSaIcEEE4baseEv
FN:890,_ZN9__gnu_cxxeqIPiSt6vectorIiSaIiEEEEbRKNS_17__normal_iteratorIT_T0_EESA_
FNDA:6,_ZN9__gnu_cxxeqIPiSt6vectorIiSaIiEEEEbRKNS_17__normal_iteratorIT_T0_EESA_
FN:904,_ZN9__gnu_cxxneIPKiSt6vectorIiSaIiEEEEbRKNS_17__normal_iteratorIT_T0_EESB_
FNDA:0,_ZN9__gnu_cxxneIPKiSt6vectorIiSaIiEEEEbRKNS_17__normal_iteratorIT_T0_EESB_
FN:904,_ZN9__gnu_cxxneIPiSt6vectorIiSaIiEEEEbRKNS_17__normal_iteratorIT_T0_EESA_
FNDA:90,_ZN9__gnu_cxxneIPiSt6vectorIiSaIiEEEEbRKNS_17__normal_iteratorIT_T0_EESA_
FN:904,_ZN9__gnu_cxxneIPKcSt6vectorIcSaIcEEEEbRKNS_17__normal_iteratorIT_T0_EESB_
FNDA:0,_ZN9__gnu_cxxneIPKcSt6vectorIcSaIcEEEEbRKNS_17__normal_iteratorIT_T0_EESB_
FN:904,_ZN9__gnu_cxxneIPKSt6vectorIS1_IcSaIcEESaIS3_EES1_IS5_SaIS5_EEEEbRKNS_17__normal_iteratorIT_T0_EESF_
FNDA:210,_ZN9__gnu_cxxneIPKSt6vectorIS1_IcSaIcEESaIS3_EES1_IS5_SaIS5_EEEEbRKNS_17__normal_iteratorIT_T0_EESF_
FN:904,_ZN9__gnu_cxxneIPKSt6vectorIcSaIcEES1_IS3_SaIS3_EEEEbRKNS_17__normal_iteratorIT_T0_EESD_
FNDA:4210,_ZN9__gnu_cxxneIPKSt6vectorIcSaIcEES1_IS3_SaIS3_EEEEbRKNS_17__normal_iteratorIT_T0_EESD_
FN:986,_ZN9__gnu_cxxmiIPSt4pairIiiESt6vectorIS2_SaIS2_EEEENS_17__normal_iteratorIT_T0_E15difference_typeERKSA_SD_
FNDA:27,_ZN9__gnu_cxxmiIPSt4pairIiiESt6vectorIS2_SaIS2_EEEENS_17__normal_iteratorIT_T0_E15difference_typeERKSA_SD_
FN:986,_ZN9__gnu_cxxmiIPSt6vectorIS1_IcSaIcEESaIS3_EES1_IS5_SaIS5_EEEENS_17__normal_iteratorIT_T0_E15difference_typeERKSC_SF_
FNDA:8,_ZN9__gnu_cxxmiIPSt6vectorIS1_IcSaIcEESaIS3_EES1_IS5_SaIS5_EEEENS_17__normal_iteratorIT_T0_E15difference_typeERKSC_SF_
FN:986,_ZN9__gnu_cxxmiIPiSt6vectorIiSaIiEEEENS_17__normal_iteratorIT_T0_E15difference_typeERKS8_SB_
FNDA:30,_ZN9__gnu_cxxmiIPiSt6vectorIiSaIiEEEENS_17__normal_iteratorIT_T0_E15difference_typeERKS8_SB_
FN:986,_ZN9__gnu_cxxmiIPcSt6vectorIcSaIcEEEENS_17__normal_iteratorIT_T0_E15difference_typeERKS8_SB_
FNDA:0,_ZN9__gnu_cxxmiIPcSt6vectorIcSaIcEEEENS_17__normal_iteratorIT_T0_E15difference_typeERKS8_SB_
FN:986,_ZN9__gnu_cxxmiIPSt6vectorIcSaIcEES1_IS3_SaIS3_EEEENS_17__normal_iteratorIT_T0_E15difference_typeERKSA_SD_
FNDA:0,_ZN9__gnu_cxxmiIPSt6vectorIcSaIcEES1_IS3_SaIS3_EEEENS_17__normal_iteratorIT_T0_E15difference_typeERKSA_SD_
FN:1007,_ZSt12__niter_baseIPKcSt6vectorIcSaIcEEET_N9__gnu_cxx17__normal_iteratorIS5_T0_EE
FNDA:7767,_ZSt12__niter_baseIPKcSt6vectorIcSaIcEEET_N9__gnu_cxx17__normal_iteratorIS5_T0_EE
FN:1007,_ZSt12__niter_baseIPKSt6vectorIcSaIcEES0_IS2_SaIS2_EEET_N9__gnu_cxx17__normal_iteratorIS7_T0_EE
FNDA:3,_ZSt12__niter_baseIPKSt6vectorIcSaIcEES0_IS2_SaIS2_EEET_N9__gnu_cxx17__normal_iteratorIS7_T0_EE
FN:1007,_ZSt12__niter_baseIPKiSt6vectorIiSaIiEEET_N9__gnu_cxx17__normal_iteratorIS5_T0_EE
FNDA:5,_ZSt12__niter_baseIPKiSt6vectorIiSaIiEEET_N9__gnu_cxx17__normal_iteratorIS5_T0_EE
FN:1054,_ZNSt13move_iteratorIPcEC2ES0_
FNDA:0,_ZNSt13move_iteratorIPcEC2ES0_
FN:1054,_ZNSt13move_iteratorIPSt6vectorIS0_IcSaIcEESaIS2_EEEC2ES5_
FNDA:0,_ZNSt13move_iteratorIPSt6vectorIS0_IcSaIcEESaIS2_EEEC2ES5_
FN:1054,_ZNSt13move_iteratorIPSt6vectorIcSaIcEEEC2ES3_
FNDA:0,_ZNSt13move_iteratorIPSt6vectorIcSaIcEEEC2ES3_
FN:1054,_ZNSt13move_iteratorIPSt4pairIiiEEC2ES2_
FNDA:0,_ZNSt13move_iteratorIPSt4pairIiiEEC2ES2_
FN:1063,_ZNKSt13move_iteratorIPcE4baseEv
FNDA:0,_ZNKSt13move_iteratorIPcE4baseEv
FN:1063,_ZNKSt13move_iteratorIPSt6vectorIcSaIcEEE4baseEv
FNDA:0,_ZNKSt13move_iteratorIPSt6vectorIcSaIcEEE4baseEv
FN:1063,_ZNKSt13move_iteratorIPSt4pairIiiEE4baseEv
FNDA:0,_ZNKSt13move_iteratorIPSt4pairIiiEE4baseEv
FN:1063,_ZNKSt13move_iteratorIPSt6vectorIS0_IcSaIcEESaIS2_EEE4baseEv
FNDA:0,_ZNKSt13move_iteratorIPSt6vectorIS0_IcSaIcEESaIS2_EEE4baseEv
FN:1067,_ZNKSt13move_iteratorIPSt4pairIiiEEdeEv
FNDA:0,_ZNKSt13move_iteratorIPSt4pairIiiEEdeEv
FN:1067,_ZNKSt13move_iteratorIPSt6vectorIcSaIcEEEdeEv
FNDA:0,_ZNKSt13move_iteratorIPSt6vectorIcSaIcEEEdeEv
FN:1067,_ZNKSt13move_iteratorIPSt6vectorIS0_IcSaIcEESaIS2_EEEdeEv
FNDA:0,_ZNKSt13move_iteratorIPSt6vectorIS0_IcSaIcEESaIS2_EEEdeEv
FN:1075,_ZNSt13move_iteratorIPSt6vectorIS0_IcSaIcEESaIS2_EEEppEv
FNDA:0,_ZNSt13move_iteratorIPSt6vectorIS0_IcSaIcEESaIS2_EEEppEv
FN:1075,_ZNSt13move_iteratorIPSt4pairIiiEEppEv
FNDA:0,_ZNSt13move_iteratorIPSt4pairIiiEEppEv
FN:1075,_ZNSt13move_iteratorIPSt6vectorIcSaIcEEEppEv
FNDA:0,_ZNSt13move_iteratorIPSt6vectorIcSaIcEEEppEv
FN:1142,_ZSteqIPSt6vectorIS0_IcSaIcEESaIS2_EEEbRKSt13move_iteratorIT_ESA_
FNDA:0,_ZSteqIPSt6vectorIS0_IcSaIcEESaIS2_EEEbRKSt13move_iteratorIT_ESA_
FN:1142,_ZSteqIPSt6vectorIcSaIcEEEbRKSt13move_iteratorIT_ES8_
FNDA:0,_ZSteqIPSt6vectorIcSaIcEEEbRKSt13move_iteratorIT_ES8_
FN:1142,_ZSteqIPSt4pairIiiEEbRKSt13move_iteratorIT_ES7_
FNDA:0,_ZSteqIPSt4pairIiiEEbRKSt13move_iteratorIT_ES7_
FN:1154,_ZStneIPSt4pairIiiEEbRKSt13move_iteratorIT_ES7_
FNDA:0,_ZStneIPSt4pairIiiEEbRKSt13move_iteratorIT_ES7_
FN:1154,_ZStneIPSt6vectorIcSaIcEEEbRKSt13move_iteratorIT_ES8_
FNDA:0,_ZStneIPSt6vectorIcSaIcEEEbRKSt13move_iteratorIT_ES8_
FN:1154,_ZStneIPSt6vectorIS0_IcSaIcEESaIS2_EEEbRKSt13move_iteratorIT_ESA_
FNDA:0,_ZStneIPSt6vectorIS0_IcSaIcEESaIS2_EEEbRKSt13move_iteratorIT_ESA_
FN:1239,_ZSt32__make_move_if_noexcept_iteratorISt6vectorIS0_IcSaIcEESaIS2_EESt13move_iteratorIPS4_EET0_PT_
FNDA:0,_ZSt32__make_move_if_noexcept_iteratorISt6vectorIS0_IcSaIcEESaIS2_EESt13move_iteratorIPS4_EET0_PT_
FN:1239,_ZSt32__make_move_if_noexcept_iteratorIcSt13move_iteratorIPcEET0_PT_
FNDA:0,_ZSt32__make_move_if_noexcept_iteratorIcSt13move_iteratorIPcEET0_PT_
FN:1239,_ZSt32__make_move_if_noexcept_iteratorISt6vectorIcSaIcEESt13move_iteratorIPS2_EET0_PT_
FNDA:0,_ZSt32__make_move_if_noexcept_iteratorISt6vectorIcSaIcEESt13move_iteratorIPS2_EET0_PT_
FN:1239,_ZSt32__make_move_if_noexcept_iteratorISt4pairIiiESt13move_iteratorIPS1_EET0_PT_
FNDA:0,_ZSt32__make_move_if_noexcept_iteratorISt4pairIiiESt13move_iteratorIPS1_EET0_PT_
FN:1259,_ZSt12__miter_baseIPcEDTcl12__miter_basecldtfp_4baseEEESt13move_iteratorIT_E
FNDA:0,_ZSt12__miter_baseIPcEDTcl12__miter_basecldtfp_4baseEEESt13move_iteratorIT_E
DA:803,0
DA:804,0
DA:803,54
DA:804,54
DA:803,5
DA:804,5
DA:803,7767
DA:804,7767
DA:803,0
DA:804,0
DA:803,206
DA:804,206
DA:803,16
DA:804,16
DA:803,845
DA:804,845
DA:803,126
DA:804,126
DA:816,0
DA:817,0
DA:816,0
DA:817,0
DA:816,107
DA:817,107
DA:816,3789
DA:817,3789
DA:816,150
DA:817,150
DA:824,0
DA:826,0
DA:827,0
DA:824,0
DA:826,0
DA:827,0
DA:824,107
DA:826,107
DA:827,107
DA:824,3789
DA:826,3789
DA:827,3789
DA:824,54
DA:826,54
DA:827,54
DA:831,48
DA:832,48
DA:856,54
DA:857,54
DA:868,7767
DA:869,7767
DA:868,5
DA:869,5
DA:868,420
DA:869,420
DA:868,8423
DA:869,8423
DA:868,0
DA:869,0
DA:868,108
DA:869,108
DA:868,0
DA:869,0
DA:868,252
DA:869,252
DA:868,32
DA:869,32
DA:890,6
DA:893,6
DA:904,0
DA:907,0
DA:904,0
DA:907,0
DA:904,210
DA:907,210
DA:904,4210
DA:907,4210
DA:904,90
DA:907,90
DA:986,0
DA:989,0
DA:986,27
DA:989,27
DA:986,0
DA:989,0
DA:986,8
DA:989,8
DA:986,30
DA:989,30
DA:1007,7767
DA:1009,7767
DA:1007,5
DA:1009,5
DA:1007,3
DA:1009,3
DA:1054,0
DA:1055,0
DA:1054,0
DA:1055,0
DA:1054,0
DA:1055,0
DA:1054,0
DA:1055,0
DA:1063,0
DA:1064,0
DA:1063,0
DA:1064,0
DA:1063,0
DA:1064,0
DA:1063,0
DA:1064,0
DA:1067,0
DA:1068,0
DA:1067,0
DA:1068,0
DA:1067,0
DA:1068,0
DA:1075,0
DA:1077,0
DA:1078,0
DA:1075,0
DA:1077,0
DA:1078,0
DA:1075,0
DA:1077,0
DA:1078,0
DA:1142,0
DA:1144,0
DA:1142,0
DA:1144,0
DA:1142,0
DA:1144,0
DA:1154,0
DA:1156,0
DA:1154,0
DA:1156,0
DA:1154,0
DA:1156,0
DA:1239,0
DA:1240,0
DA:1239,0
DA:1240,0
DA:1239,0
DA:1240,0
DA:1239,0
DA:1240,0
DA:1259,0
DA:1261,0
end_of_record
SF:/usr/include/c++/9/chrono
FN:346,_ZNKSt6chrono8durationIlSt5ratioILl1ELl1000000000EEE5countEv
FNDA:6,_ZNKSt6chrono8durationIlSt5ratioILl1ELl1000000000EEE5countEv
FN:649,_ZNKSt6chrono10time_pointINS_3_V212system_clockENS_8durationIlSt5ratioILl1ELl1000000000EEEEE16time_since_epochEv
FNDA:6,_ZNKSt6chrono10time_pointINS_3_V212system_clockENS_8durationIlSt5ratioILl1ELl1000000000EEEEE16time_since_epochEv
DA:346,6
DA:347,6
DA:649,6
DA:650,6
end_of_record
SF:/usr/include/c++/9/bits/random.tcc
FN:325,_ZNSt23mersenne_twister_engineImLm32ELm624ELm397ELm31ELm2567483615ELm11ELm4294967295ELm7ELm2636928640ELm15ELm4022730752ELm18ELm1812433253EE4seedEm
FNDA:6,_ZNSt23mersenne_twister_engineImLm32ELm624ELm397ELm31ELm2567483615ELm11ELm4294967295ELm7ELm2636928640ELm15ELm4022730752ELm18ELm1812433253EE4seedEm
FN:396,_ZNSt23mersenne_twister_engineImLm32ELm624ELm397ELm31ELm2567483615ELm11ELm4294967295ELm7ELm2636928640ELm15ELm4022730752ELm18ELm1812433253EE11_M_gen_randEv
FNDA:6,_ZNSt23mersenne_twister_engineImLm32ELm624ELm397ELm31ELm2567483615ELm11ELm4294967295ELm7ELm2636928640ELm15ELm4022730752ELm18ELm1812433253EE11_M_gen_randEv
FN:452,_ZNSt23mersenne_twister_engineImLm32ELm624ELm397ELm31ELm2567483615ELm11ELm4294967295ELm7ELm2636928640ELm15ELm4022730752ELm18ELm1812433253EEclEv
FNDA:24,_ZNSt23mersenne_twister_engineImLm32ELm624ELm397ELm31ELm2567483615ELm11ELm4294967295ELm7ELm2636928640ELm15ELm4022730752ELm18ELm1812433253EEclEv
DA:325,6
DA:329,6
DA:330,6
DA:332,3744
DA:334,3738
DA:335,3738
DA:336,3738
DA:337,3738
DA:338,3738
DA:339,3738
DA:341,6
DA:342,6
DA:396,6
DA:400,6
DA:401,6
DA:403,1368
DA:405,1362
DA:406,1362
DA:407,2724
DA:408,1362
DA:411,2382
DA:413,2376
DA:414,2376
DA:415,4752
DA:416,2376
DA:419,6
DA:420,6
DA:421,12
DA:422,6
DA:423,6
DA:424,6
DA:452,24
DA:457,24
DA:458,6
DA:461,24
DA:462,24
DA:463,24
DA:464,24
DA:465,24
DA:467,24
end_of_record
SF:/usr/include/c++/9/iostream
end_of_record
SF:/usr/include/c++/9/bits/stl_uninitialized.h
FN:76,_ZNSt20__uninitialized_copyILb0EE13__uninit_copyIN9__gnu_cxx17__normal_iteratorIPKSt6vectorIS4_IcSaIcEESaIS6_EES4_IS8_SaIS8_EEEEPS8_EET0_T_SG_SF_
FNDA:103,_ZNSt20__uninitialized_copyILb0EE13__uninit_copyIN9__gnu_cxx17__normal_iteratorIPKSt6vectorIS4_IcSaIcEESaIS6_EES4_IS8_SaIS8_EEEEPS8_EET0_T_SG_SF_
FN:76,_ZNSt20__uninitialized_copyILb0EE13__uninit_copyISt13move_iteratorIPSt6vectorIcSaIcEEES6_EET0_T_S9_S8_
FNDA:0,_ZNSt20__uninitialized_copyILb0EE13__uninit_copyISt13move_iteratorIPSt6vectorIcSaIcEEES6_EET0_T_S9_S8_
FN:76,_ZNSt20__uninitialized_copyILb0EE13__uninit_copyIN9__gnu_cxx17__normal_iteratorIPKSt6vectorIcSaIcEES4_IS6_SaIS6_EEEEPS6_EET0_T_SE_SD_
FNDA:421,_ZNSt20__uninitialized_copyILb0EE13__uninit_copyIN9__gnu_cxx17__normal_iteratorIPKSt6vectorIcSaIcEES4_IS6_SaIS6_EEEEPS6_EET0_T_SE_SD_
FN:76,_ZNSt20__uninitialized_copyILb0EE13__uninit_copyISt13move_iteratorIPSt4pairIiiEES5_EET0_T_S8_S7_
FNDA:0,_ZNSt20__uninitialized_copyILb0EE13__uninit_copyISt13move_iteratorIPSt4pairIiiEES5_EET0_T_S8_S7_
FN:76,_ZNSt20__uninitialized_copyILb0EE13__uninit_copyIPKSt6vectorIcSaIcEEPS4_EET0_T_S9_S8_
FNDA:4,_ZNSt20__uninitialized_copyILb0EE13__uninit_copyIPKSt6vectorIcSaIcEEPS4_EET0_T_S9_S8_
FN:76,_ZNSt20__uninitialized_copyILb0EE13__uninit_copyISt13move_iteratorIPSt6vectorIS3_IcSaIcEESaIS5_EEES8_EET0_T_SB_SA_
FNDA:0,_ZNSt20__uninitialized_copyILb0EE13__uninit_copyISt13move_iteratorIPSt6vectorIS3_IcSaIcEESaIS5_EEES8_EET0_T_SB_SA_
FN:99,_ZNSt20__uninitialized_copyILb1EE13__uninit_copyIN9__gnu_cxx17__normal_iteratorIPKcSt6vectorIcSaIcEEEEPcEET0_T_SC_SB_
FNDA:3870,_ZNSt20__uninitialized_copyILb1EE13__uninit_copyIN9__gnu_cxx17__normal_iteratorIPKcSt6vectorIcSaIcEEEEPcEET0_T_SC_SB_
FN:99,_ZNSt20__uninitialized_copyILb1EE13__uninit_copyIPKiPiEET0_T_S6_S5_
FNDA:2,_ZNSt20__uninitialized_copyILb1EE13__uninit_copyIPKiPiEET0_T_S6_S5_
FN:99,_ZNSt20__uninitialized_copyILb1EE13__uninit_copyIPKcPcEET0_T_S6_S5_
FNDA:36,_ZNSt20__uninitialized_copyILb1EE13__uninit_copyIPKcPcEET0_T_S6_S5_
FN:99,_ZNSt20__uninitialized_copyILb1EE13__uninit_copyIN9__gnu_cxx17__normal_iteratorIPKiSt6vectorIiSaIiEEEEPiEET0_T_SC_SB_
FNDA:1,_ZNSt20__uninitialized_copyILb1EE13__uninit_copyIN9__gnu_cxx17__normal_iteratorIPKiSt6vectorIiSaIiEEEEPiEET0_T_SC_SB_
FN:99,_ZNSt20__uninitialized_copyILb1EE13__uninit_copyISt13move_iteratorIPcES3_EET0_T_S6_S5_
FNDA:0,_ZNSt20__uninitialized_copyILb1EE13__uninit_copyISt13move_iteratorIPcES3_EET0_T_S6_S5_
FN:115,_ZSt18uninitialized_copyIN9__gnu_cxx17__normal_iteratorIPKcSt6vectorIcSaIcEEEEPcET0_T_SA_S9_
FNDA:3870,_ZSt18uninitialized_copyIN9__gnu_cxx17__normal_iteratorIPKcSt6vectorIcSaIcEEEEPcET0_T_SA_S9_
FN:115,_ZSt18uninitialized_copyISt13move_iteratorIPSt4pairIiiEES3_ET0_T_S6_S5_
FNDA:0,_ZSt18uninitialized_copyISt13move_iteratorIPSt4pairIiiEES3_ET0_T_S6_S5_
FN:115,_ZSt18uninitialized_copyIN9__gnu_cxx17__normal_iteratorIPKSt6vectorIS2_IcSaIcEESaIS4_EES2_IS6_SaIS6_EEEEPS6_ET0_T_SE_SD_
FNDA:103,_ZSt18uninitialized_copyIN9__gnu_cxx17__normal_iteratorIPKSt6vectorIS2_IcSaIcEESaIS4_EES2_IS6_SaIS6_EEEEPS6_ET0_T_SE_SD_
FN:115,_ZSt18uninitialized_copyIN9__gnu_cxx17__normal_iteratorIPKiSt6vectorIiSaIiEEEEPiET0_T_SA_S9_
FNDA:1,_ZSt18uninitialized_copyIN9__gnu_cxx17__normal_iteratorIPKiSt6vectorIiSaIiEEEEPiET0_T_SA_S9_
FN:115,_ZSt18uninitialized_copyISt13move_iteratorIPSt6vectorIcSaIcEEES4_ET0_T_S7_S6_
FNDA:0,_ZSt18uninitialized_copyISt13move_iteratorIPSt6vectorIcSaIcEEES4_ET0_T_S7_S6_
FN:115,_ZSt18uninitialized_copyIN9__gnu_cxx17__normal_iteratorIPKSt6vectorIcSaIcEES2_IS4_SaIS4_EEEEPS4_ET0_T_SC_SB_
FNDA:421,_ZSt18uninitialized_copyIN9__gnu_cxx17__normal_iteratorIPKSt6vectorIcSaIcEES2_IS4_SaIS4_EEEEPS4_ET0_T_SC_SB_
FN:115,_ZSt18uninitialized_copyIPKiPiET0_T_S4_S3_
FNDA:2,_ZSt18uninitialized_copyIPKiPiET0_T_S4_S3_
FN:115,_ZSt18uninitialized_copyIPKcPcET0_T_S4_S3_
FNDA:36,_ZSt18uninitialized_copyIPKcPcET0_T_S4_S3_
FN:115,_ZSt18uninitialized_copyISt13move_iteratorIPcES1_ET0_T_S4_S3_
FNDA:0,_ZSt18uninitialized_copyISt13move_iteratorIPcES1_ET0_T_S4_S3_
FN:115,_ZSt18uninitialized_copyIPKSt6vectorIcSaIcEEPS2_ET0_T_S7_S6_
FNDA:4,_ZSt18uninitialized_copyIPKSt6vectorIcSaIcEEPS2_ET0_T_S7_S6_
FN:115,_ZSt18uninitialized_copyISt13move_iteratorIPSt6vectorIS1_IcSaIcEESaIS3_EEES6_ET0_T_S9_S8_
FNDA:0,_ZSt18uninitialized_copyISt13move_iteratorIPSt6vectorIS1_IcSaIcEESaIS3_EEES6_ET0_T_S9_S8_
FN:215,_ZNSt22__uninitialized_fill_nILb0EE15__uninit_fill_nIPSt6vectorIcSaIcEEmS4_EET_S6_T0_RKT1_
FNDA:5,_ZNSt22__uninitialized_fill_nILb0EE15__uninit_fill_nIPSt6vectorIcSaIcEEmS4_EET_S6_T0_RKT1_
FN:238,_ZNSt22__uninitialized_fill_nILb1EE15__uninit_fill_nIPcmcEET_S3_T0_RKT1_
FNDA:5,_ZNSt22__uninitialized_fill_nILb1EE15__uninit_fill_nIPcmcEET_S3_T0_RKT1_
FN:256,_ZSt20uninitialized_fill_nIPcmcET_S1_T0_RKT1_
FNDA:5,_ZSt20uninitialized_fill_nIPcmcET_S1_T0_RKT1_
FN:256,_ZSt20uninitialized_fill_nIPSt6vectorIcSaIcEEmS2_ET_S4_T0_RKT1_
FNDA:5,_ZSt20uninitialized_fill_nIPSt6vectorIcSaIcEEmS2_ET_S4_T0_RKT1_
FN:305,_ZSt22__uninitialized_copy_aISt13move_iteratorIPSt6vectorIS1_IcSaIcEESaIS3_EEES6_S5_ET0_T_S9_S8_RSaIT1_E
FNDA:0,_ZSt22__uninitialized_copy_aISt13move_iteratorIPSt6vectorIS1_IcSaIcEESaIS3_EEES6_S5_ET0_T_S9_S8_RSaIT1_E
FN:305,_ZSt22__uninitialized_copy_aIPKSt6vectorIcSaIcEEPS2_S2_ET0_T_S7_S6_RSaIT1_E
FNDA:4,_ZSt22__uninitialized_copy_aIPKSt6vectorIcSaIcEEPS2_S2_ET0_T_S7_S6_RSaIT1_E
FN:305,_ZSt22__uninitialized_copy_aIPKcPccET0_T_S4_S3_RSaIT1_E
FNDA:36,_ZSt22__uninitialized_copy_aIPKcPccET0_T_S4_S3_RSaIT1_E
FN:305,_ZSt22__uninitialized_copy_aIPKiPiiET0_T_S4_S3_RSaIT1_E
FNDA:2,_ZSt22__uninitialized_copy_aIPKiPiiET0_T_S4_S3_RSaIT1_E
FN:305,_ZSt22__uninitialized_copy_aIN9__gnu_cxx17__normal_iteratorIPKiSt6vectorIiSaIiEEEEPiiET0_T_SA_S9_RSaIT1_E
FNDA:1,_ZSt22__uninitialized_copy_aIN9__gnu_cxx17__normal_iteratorIPKiSt6vectorIiSaIiEEEEPiiET0_T_SA_S9_RSaIT1_E
FN:305,_ZSt22__uninitialized_copy_aIN9__gnu_cxx17__normal_iteratorIPKcSt6vectorIcSaIcEEEEPccET0_T_SA_S9_RSaIT1_E
FNDA:3870,_ZSt22__uninitialized_copy_aIN9__gnu_cxx17__normal_iteratorIPKcSt6vectorIcSaIcEEEEPccET0_T_SA_S9_RSaIT1_E
FN:305,_ZSt22__uninitialized_copy_aIN9__gnu_cxx17__normal_iteratorIPKSt6vectorIS2_IcSaIcEESaIS4_EES2_IS6_SaIS6_EEEEPS6_S6_ET0_T_SE_SD_RSaIT1_E
FNDA:103,_ZSt22__uninitialized_copy_aIN9__gnu_cxx17__normal_iteratorIPKSt6vectorIS2_IcSaIcEESaIS4_EES2_IS6_SaIS6_EEEEPS6_S6_ET0_T_SE_SD_RSaIT1_E
FN:305,_ZSt22__uninitialized_copy_aIN9__gnu_cxx17__normal_iteratorIPKSt6vectorIcSaIcEES2_IS4_SaIS4_EEEEPS4_S4_ET0_T_SC_SB_RSaIT1_E
FNDA:421,_ZSt22__uninitialized_copy_aIN9__gnu_cxx17__normal_iteratorIPKSt6vectorIcSaIcEES2_IS4_SaIS4_EEEEPS4_S4_ET0_T_SC_SB_RSaIT1_E
FN:305,_ZSt22__uninitialized_copy_aISt13move_iteratorIPcES1_cET0_T_S4_S3_RSaIT1_E
FNDA:0,_ZSt22__uninitialized_copy_aISt13move_iteratorIPcES1_cET0_T_S4_S3_RSaIT1_E
FN:305,_ZSt22__uninitialized_copy_aISt13move_iteratorIPSt4pairIiiEES3_S2_ET0_T_S6_S5_RSaIT1_E
FNDA:0,_ZSt22__uninitialized_copy_aISt13move_iteratorIPSt4pairIiiEES3_S2_ET0_T_S6_S5_RSaIT1_E
FN:305,_ZSt22__uninitialized_copy_aISt13move_iteratorIPSt6vectorIcSaIcEEES4_S3_ET0_T_S7_S6_RSaIT1_E
FNDA:0,_ZSt22__uninitialized_copy_aISt13move_iteratorIPSt6vectorIcSaIcEEES4_S3_ET0_T_S7_S6_RSaIT1_E
FN:323,_ZSt34__uninitialized_move_if_noexcept_aIPSt6vectorIcSaIcEES3_SaIS2_EET0_T_S6_S5_RT1_
FNDA:0,_ZSt34__uninitialized_move_if_noexcept_aIPSt6vectorIcSaIcEES3_SaIS2_EET0_T_S6_S5_RT1_
FN:323,_ZSt34__uninitialized_move_if_noexcept_aIPSt4pairIiiES2_SaIS1_EET0_T_S5_S4_RT1_
FNDA:0,_ZSt34__uninitialized_move_if_noexcept_aIPSt4pairIiiES2_SaIS1_EET0_T_S5_S4_RT1_
FN:323,_ZSt34__uninitialized_move_if_noexcept_aIPSt6vectorIS0_IcSaIcEESaIS2_EES5_SaIS4_EET0_T_S8_S7_RT1_
FNDA:0,_ZSt34__uninitialized_move_if_noexcept_aIPSt6vectorIS0_IcSaIcEESaIS2_EES5_SaIS4_EET0_T_S8_S7_RT1_
FN:323,_ZSt34__uninitialized_move_if_noexcept_aIPcS0_SaIcEET0_T_S3_S2_RT1_
FNDA:0,_ZSt34__uninitialized_move_if_noexcept_aIPcS0_SaIcEET0_T_S3_S2_RT1_
FN:382,_ZSt24__uninitialized_fill_n_aIPSt6vectorIcSaIcEEmS2_S2_ET_S4_T0_RKT1_RSaIT2_E
FNDA:5,_ZSt24__uninitialized_fill_n_aIPSt6vectorIcSaIcEEmS2_S2_ET_S4_T0_RKT1_RSaIT2_E
FN:382,_ZSt24__uninitialized_fill_n_aIPcmccET_S1_T0_RKT1_RSaIT2_E
FNDA:5,_ZSt24__uninitialized_fill_n_aIPcmccET_S1_T0_RKT1_RSaIT2_E
FN:561,_ZNSt27__uninitialized_default_n_1ILb1EE18__uninit_default_nIPimEET_S3_T0_
FNDA:6,_ZNSt27__uninitialized_default_n_1ILb1EE18__uninit_default_nIPimEET_S3_T0_
FN:592,_ZSt25__uninitialized_default_nIPimET_S1_T0_
FNDA:6,_ZSt25__uninitialized_default_nIPimET_S1_T0_
FN:661,_ZSt27__uninitialized_default_n_aIPimiET_S1_T0_RSaIT1_E
FNDA:6,_ZSt27__uninitialized_default_n_aIPimiET_S1_T0_RSaIT1_E
FN:905,_ZSt19__relocate_object_aISt6vectorIcSaIcEES2_SaIS2_EEvPT_PT0_RT1_
FNDA:0,_ZSt19__relocate_object_aISt6vectorIcSaIcEES2_SaIS2_EEvPT_PT0_RT1_
FN:905,_ZSt19__relocate_object_aISt4pairIiiES1_SaIS1_EEvPT_PT0_RT1_
FNDA:220,_ZSt19__relocate_object_aISt4pairIiiES1_SaIS1_EEvPT_PT0_RT1_
FN:905,_ZSt19__relocate_object_aISt6vectorIS0_IcSaIcEESaIS2_EES4_SaIS4_EEvPT_PT0_RT1_
FNDA:2,_ZSt19__relocate_object_aISt6vectorIS0_IcSaIcEESaIS2_EES4_SaIS4_EEvPT_PT0_RT1_
FN:924,_ZSt14__relocate_a_1IccENSt9enable_ifIXsrSt24__is_bitwise_relocatableIT_vE5valueEPS2_E4typeES4_S4_S4_RSaIT0_E
FNDA:0,_ZSt14__relocate_a_1IccENSt9enable_ifIXsrSt24__is_bitwise_relocatableIT_vE5valueEPS2_E4typeES4_S4_S4_RSaIT0_E
FN:936,_ZSt14__relocate_a_1IPSt6vectorIS0_IcSaIcEESaIS2_EES5_SaIS4_EET0_T_S8_S7_RT1_
FNDA:16,_ZSt14__relocate_a_1IPSt6vectorIS0_IcSaIcEESaIS2_EES5_SaIS4_EET0_T_S8_S7_RT1_
FN:936,_ZSt14__relocate_a_1IPSt4pairIiiES2_SaIS1_EET0_T_S5_S4_RT1_
FNDA:54,_ZSt14__relocate_a_1IPSt4pairIiiES2_SaIS1_EET0_T_S5_S4_RT1_
FN:936,_ZSt14__relocate_a_1IPSt6vectorIcSaIcEES3_SaIS2_EET0_T_S6_S5_RT1_
FNDA:0,_ZSt14__relocate_a_1IPSt6vectorIcSaIcEES3_SaIS2_EET0_T_S6_S5_RT1_
FN:958,_ZSt12__relocate_aIPSt6vectorIcSaIcEES3_SaIS2_EET0_T_S6_S5_RT1_
FNDA:0,_ZSt12__relocate_aIPSt6vectorIcSaIcEES3_SaIS2_EET0_T_S6_S5_RT1_
FN:958,_ZSt12__relocate_aIPSt4pairIiiES2_SaIS1_EET0_T_S5_S4_RT1_
FNDA:54,_ZSt12__relocate_aIPSt4pairIiiES2_SaIS1_EET0_T_S5_S4_RT1_
FN:958,_ZSt12__relocate_aIPcS0_SaIcEET0_T_S3_S2_RT1_
FNDA:0,_ZSt12__relocate_aIPcS0_SaIcEET0_T_S3_S2_RT1_
FN:958,_ZSt12__relocate_aIPSt6vectorIS0_IcSaIcEESaIS2_EES5_SaIS4_EET0_T_S8_S7_RT1_
FNDA:16,_ZSt12__relocate_aIPSt6vectorIS0_IcSaIcEESaIS2_EES5_SaIS4_EET0_T_S8_S7_RT1_
DA:76,0
DA:79,0
DA:82,0
DA:83,0
DA:84,0
DA:86,0
DA:88,0
DA:89,0
DA:76,0
DA:79,0
DA:82,0
DA:83,0
DA:84,0
DA:86,0
DA:88,0
DA:89,0
DA:76,0
DA:79,0
DA:82,0
DA:83,0
DA:84,0
DA:86,0
DA:88,0
DA:89,0
DA:76,4
DA:79,4
DA:82,40
DA:83,36
DA:84,4
DA:86,0
DA:88,0
DA:89,0
DA:76,103
DA:79,103
DA:82,210
DA:83,107
DA:84,103
DA:86,0
DA:88,0
DA:89,0
DA:76,421
DA:79,421
DA:82,4210
DA:83,3789
DA:84,421
DA:86,0
DA:88,0
DA:89,0
DA:99,0
DA:101,0
DA:99,36
DA:101,36
DA:99,2
DA:101,2
DA:99,1
DA:101,1
DA:99,3870
DA:101,3870
DA:115,0
DA:134,0
DA:140,0
DA:115,0
DA:134,0
DA:140,0
DA:115,0
DA:134,0
DA:140,0
DA:115,0
DA:134,0
DA:140,0
DA:115,4
DA:134,4
DA:140,4
DA:115,36
DA:134,36
DA:140,36
DA:115,2
DA:134,2
DA:140,2
DA:115,1
DA:134,1
DA:140,1
DA:115,3870
DA:134,3870
DA:140,3870
DA:115,103
DA:134,103
DA:140,103
DA:115,421
DA:134,421
DA:140,421
DA:215,5
DA:218,5
DA:221,50
DA:222,45
DA:223,5
DA:225,0
DA:227,0
DA:228,0
DA:238,5
DA:240,5
DA:256,5
DA:270,5
DA:273,5
DA:256,5
DA:270,5
DA:273,5
DA:305,0
DA:307,0
DA:305,0
DA:307,0
DA:305,0
DA:307,0
DA:305,0
DA:307,0
DA:305,4
DA:307,4
DA:305,36
DA:307,36
DA:305,2
DA:307,2
DA:305,1
DA:307,1
DA:305,3870
DA:307,3870
DA:305,103
DA:307,103
DA:305,421
DA:307,421
DA:323,0
DA:329,0
DA:330,0
DA:323,0
DA:329,0
DA:330,0
DA:323,0
DA:329,0
DA:330,0
DA:323,0
DA:329,0
DA:330,0
DA:382,5
DA:384,5
DA:382,5
DA:384,5
DA:561,6
DA:566,6
DA:592,6
DA:597,6
DA:601,6
DA:661,6
DA:663,6
DA:905,0
DA:912,0
DA:913,0
DA:914,0
DA:905,220
DA:912,220
DA:913,220
DA:914,220
DA:905,2
DA:912,2
DA:913,2
DA:914,2
DA:924,0
DA:927,0
DA:928,0
DA:929,0
DA:930,0
DA:936,0
DA:948,0
DA:949,0
DA:950,0
DA:952,0
DA:936,54
DA:948,54
DA:949,274
DA:950,220
DA:952,54
DA:936,16
DA:948,16
DA:949,18
DA:950,2
DA:952,16
DA:958,0
DA:964,0
DA:966,0
DA:958,54
DA:964,54
DA:966,54
DA:958,0
DA:964,0
DA:966,0
DA:958,16
DA:964,16
DA:966,16
end_of_record
SF:/usr/include/c++/9/ext/new_allocator.h
FN:80,_ZN9__gnu_cxx13new_allocatorIcEC2Ev
FNDA:0,_ZN9__gnu_cxx13new_allocatorIcEC2Ev
FN:80,_ZN9__gnu_cxx13new_allocatorIiEC2Ev
FNDA:8,_ZN9__gnu_cxx13new_allocatorIiEC2Ev
FN:80,_ZN9__gnu_cxx13new_allocatorISt6vectorIcSaIcEEEC2Ev
FNDA:9,_ZN9__gnu_cxx13new_allocatorISt6vectorIcSaIcEEEC2Ev
FN:80,_ZN9__gnu_cxx13new_allocatorISt6vectorIS1_IcSaIcEESaIS3_EEEC2Ev
FNDA:11,_ZN9__gnu_cxx13new_allocatorISt6vectorIS1_IcSaIcEESaIS3_EEEC2Ev
FN:80,_ZN9__gnu_cxx13new_allocatorISt4pairIiiEEC2Ev
FNDA:10,_ZN9__gnu_cxx13new_allocatorISt4pairIiiEEC2Ev
FN:83,_ZN9__gnu_cxx13new_allocatorIcEC2ERKS1_
FNDA:0,_ZN9__gnu_cxx13new_allocatorIcEC2ERKS1_
FN:83,_ZN9__gnu_cxx13new_allocatorIiEC2ERKS1_
FNDA:18,_ZN9__gnu_cxx13new_allocatorIiEC2ERKS1_
FN:83,_ZN9__gnu_cxx13new_allocatorISt6vectorIcSaIcEEEC2ERKS4_
FNDA:862,_ZN9__gnu_cxx13new_allocatorISt6vectorIcSaIcEEEC2ERKS4_
FN:83,_ZN9__gnu_cxx13new_allocatorISt6vectorIS1_IcSaIcEESaIS3_EEEC2ERKS6_
FNDA:206,_ZN9__gnu_cxx13new_allocatorISt6vectorIS1_IcSaIcEESaIS3_EEEC2ERKS6_
FN:89,_ZN9__gnu_cxx13new_allocatorIcED2Ev
FNDA:0,_ZN9__gnu_cxx13new_allocatorIcED2Ev
FN:89,_ZN9__gnu_cxx13new_allocatorISt6vectorIS1_IcSaIcEESaIS3_EEED2Ev
FNDA:217,_ZN9__gnu_cxx13new_allocatorISt6vectorIS1_IcSaIcEESaIS3_EEED2Ev
FN:89,_ZN9__gnu_cxx13new_allocatorISt4pairIiiEED2Ev
FNDA:10,_ZN9__gnu_cxx13new_allocatorISt4pairIiiEED2Ev
FN:89,_ZN9__gnu_cxx13new_allocatorIiED2Ev
FNDA:26,_ZN9__gnu_cxx13new_allocatorIiED2Ev
FN:89,_ZN9__gnu_cxx13new_allocatorISt6vectorIcSaIcEEED2Ev
FNDA:871,_ZN9__gnu_cxx13new_allocatorISt6vectorIcSaIcEEED2Ev
FN:102,_ZN9__gnu_cxx13new_allocatorISt4pairIiiEE8allocateEmPKv
FNDA:27,_ZN9__gnu_cxx13new_allocatorISt4pairIiiEE8allocateEmPKv
FN:102,_ZN9__gnu_cxx13new_allocatorIcE8allocateEmPKv
FNDA:3911,_ZN9__gnu_cxx13new_allocatorIcE8allocateEmPKv
FN:102,_ZN9__gnu_cxx13new_allocatorISt6vectorIcSaIcEEE8allocateEmPKv
FNDA:430,_ZN9__gnu_cxx13new_allocatorISt6vectorIcSaIcEEE8allocateEmPKv
FN:102,_ZN9__gnu_cxx13new_allocatorIiE8allocateEmPKv
FNDA:9,_ZN9__gnu_cxx13new_allocatorIiE8allocateEmPKv
FN:102,_ZN9__gnu_cxx13new_allocatorISt6vectorIS1_IcSaIcEESaIS3_EEE8allocateEmPKv
FNDA:111,_ZN9__gnu_cxx13new_allocatorISt6vectorIS1_IcSaIcEESaIS3_EEE8allocateEmPKv
FN:119,_ZN9__gnu_cxx13new_allocatorISt4pairIiiEE10deallocateEPS2_m
FNDA:27,_ZN9__gnu_cxx13new_allocatorISt4pairIiiEE10deallocateEPS2_m
FN:119,_ZN9__gnu_cxx13new_allocatorISt6vectorIS1_IcSaIcEESaIS3_EEE10deallocateEPS5_m
FNDA:111,_ZN9__gnu_cxx13new_allocatorISt6vectorIS1_IcSaIcEESaIS3_EEE10deallocateEPS5_m
FN:119,_ZN9__gnu_cxx13new_allocatorIcE10deallocateEPcm
FNDA:3911,_ZN9__gnu_cxx13new_allocatorIcE10deallocateEPcm
FN:119,_ZN9__gnu_cxx13new_allocatorIiE10deallocateEPim
FNDA:9,_ZN9__gnu_cxx13new_allocatorIiE10deallocateEPim
FN:119,_ZN9__gnu_cxx13new_allocatorISt6vectorIcSaIcEEE10deallocateEPS3_m
FNDA:430,_ZN9__gnu_cxx13new_allocatorISt6vectorIcSaIcEEE10deallocateEPS3_m
FN:132,_ZNK9__gnu_cxx13new_allocatorISt4pairIiiEE8max_sizeEv
FNDA:81,_ZNK9__gnu_cxx13new_allocatorISt4pairIiiEE8max_sizeEv
FN:132,_ZNK9__gnu_cxx13new_allocatorISt6vectorIS1_IcSaIcEESaIS3_EEE8max_sizeEv
FNDA:127,_ZNK9__gnu_cxx13new_allocatorISt6vectorIS1_IcSaIcEESaIS3_EEE8max_sizeEv
FN:132,_ZNK9__gnu_cxx13new_allocatorISt6vectorIcSaIcEEE8max_sizeEv
FNDA:439,_ZNK9__gnu_cxx13new_allocatorISt6vectorIcSaIcEEE8max_sizeEv
FN:132,_ZNK9__gnu_cxx13new_allocatorIiE8max_sizeEv
FNDA:17,_ZNK9__gnu_cxx13new_allocatorIiE8max_sizeEv
FN:132,_ZNK9__gnu_cxx13new_allocatorIcE8max_sizeEv
FNDA:3952,_ZNK9__gnu_cxx13new_allocatorIcE8max_sizeEv
FN:144,_ZN9__gnu_cxx13new_allocatorISt6vectorIcSaIcEEE9constructIS3_JS3_EEEvPT_DpOT0_
FNDA:0,_ZN9__gnu_cxx13new_allocatorISt6vectorIcSaIcEEE9constructIS3_JS3_EEEvPT_DpOT0_
FN:144,_ZN9__gnu_cxx13new_allocatorISt6vectorIS1_IcSaIcEESaIS3_EEE9constructIS5_JS5_EEEvPT_DpOT0_
FNDA:2,_ZN9__gnu_cxx13new_allocatorISt6vectorIS1_IcSaIcEESaIS3_EEE9constructIS5_JS5_EEEvPT_DpOT0_
FN:144,_ZN9__gnu_cxx13new_allocatorISt6vectorIS1_IcSaIcEESaIS3_EEE9constructIS5_JRKS5_EEEvPT_DpOT0_
FNDA:107,_ZN9__gnu_cxx13new_allocatorISt6vectorIS1_IcSaIcEESaIS3_EEE9constructIS5_JRKS5_EEEvPT_DpOT0_
FN:144,_ZN9__gnu_cxx13new_allocatorIcE9constructIcJRKcEEEvPT_DpOT0_
FNDA:0,_ZN9__gnu_cxx13new_allocatorIcE9constructIcJRKcEEEvPT_DpOT0_
FN:144,_ZN9__gnu_cxx13new_allocatorISt4pairIiiEE9constructIS2_JS2_EEEvPT_DpOT0_
FNDA:2108,_ZN9__gnu_cxx13new_allocatorISt4pairIiiEE9constructIS2_JS2_EEEvPT_DpOT0_
FN:150,_ZN9__gnu_cxx13new_allocatorIcE7destroyIcEEvPT_
FNDA:0,_ZN9__gnu_cxx13new_allocatorIcE7destroyIcEEvPT_
FN:150,_ZN9__gnu_cxx13new_allocatorISt4pairIiiEE7destroyIS2_EEvPT_
FNDA:220,_ZN9__gnu_cxx13new_allocatorISt4pairIiiEE7destroyIS2_EEvPT_
FN:150,_ZN9__gnu_cxx13new_allocatorISt6vectorIcSaIcEEE7destroyIS3_EEvPT_
FNDA:0,_ZN9__gnu_cxx13new_allocatorISt6vectorIcSaIcEEE7destroyIS3_EEvPT_
FN:150,_ZN9__gnu_cxx13new_allocatorISt6vectorIS1_IcSaIcEESaIS3_EEE7destroyIS5_EEvPT_
FNDA:2,_ZN9__gnu_cxx13new_allocatorISt6vectorIS1_IcSaIcEESaIS3_EEE7destroyIS5_EEvPT_
DA:80,10
DA:80,11
DA:80,9
DA:80,8
DA:80,0
DA:83,206
DA:83,862
DA:83,18
DA:83,0
DA:89,871
DA:89,26
DA:89,10
DA:89,217
DA:89,0
DA:102,27
DA:104,27
DA:105,0
DA:114,27
DA:102,430
DA:104,430
DA:105,0
DA:114,430
DA:102,9
DA:104,9
DA:105,0
DA:114,9
DA:102,111
DA:104,111
DA:105,0
DA:114,111
DA:102,3911
DA:104,3911
DA:105,0
DA:114,3911
DA:119,430
DA:128,430
DA:129,430
DA:119,9
DA:128,9
DA:129,9
DA:119,27
DA:128,27
DA:129,27
DA:119,111
DA:128,111
DA:129,111
DA:119,3911
DA:128,3911
DA:129,3911
DA:132,81
DA:135,81
DA:132,127
DA:135,127
DA:132,439
DA:135,439
DA:132,17
DA:135,17
DA:132,3952
DA:135,3952
DA:144,0
DA:146,0
DA:144,2
DA:146,2
DA:144,2108
DA:146,2108
DA:144,0
DA:146,0
DA:144,107
DA:146,107
DA:150,0
DA:152,0
DA:150,220
DA:152,220
DA:150,0
DA:152,0
DA:150,2
DA:152,2
end_of_record
SF:/usr/include/gtest/internal/gtest-port.h
FN:957,_ZN7testing8internal8GTestLog9GetStreamEv
FNDA:0,_ZN7testing8internal8GTestLog9GetStreamEv
DA:957,0
end_of_record
SF:/usr/include/gtest/gtest-printers.h
FN:260,_ZN16testing_internal26DefaultPrintNonContainerToImEEvRKT_PSo
FNDA:0,_ZN16testing_internal26DefaultPrintNonContainerToImEEvRKT_PSo
FN:260,_ZN16testing_internal26DefaultPrintNonContainerToIiEEvRKT_PSo
FNDA:0,_ZN16testing_internal26DefaultPrintNonContainerToIiEEvRKT_PSo
FN:313,_ZN7testing8internal19FormatForComparisonISt6vectorIS2_IcSaIcEESaIS4_EES6_E6FormatB5cxx11ERKS6_
FNDA:0,_ZN7testing8internal19FormatForComparisonISt6vectorIS2_IcSaIcEESaIS4_EES6_E6FormatB5cxx11ERKS6_
FN:313,_ZN7testing8internal19FormatForComparisonIiiE6FormatB5cxx11ERKi
FNDA:0,_ZN7testing8internal19FormatForComparisonIiiE6FormatB5cxx11ERKi
FN:313,_ZN7testing8internal19FormatForComparisonISt6vectorIiSaIiEES4_E6FormatB5cxx11ERKS4_
FNDA:0,_ZN7testing8internal19FormatForComparisonISt6vectorIiSaIiEES4_E6FormatB5cxx11ERKS4_
FN:313,_ZN7testing8internal19FormatForComparisonIccE6FormatB5cxx11ERKc
FNDA:0,_ZN7testing8internal19FormatForComparisonIccE6FormatB5cxx11ERKc
FN:313,_ZN7testing8internal19FormatForComparisonImiE6FormatB5cxx11ERKm
FNDA:0,_ZN7testing8internal19FormatForComparisonImiE6FormatB5cxx11ERKm
FN:313,_ZN7testing8internal19FormatForComparisonIimE6FormatB5cxx11ERKi
FNDA:0,_ZN7testing8internal19FormatForComparisonIimE6FormatB5cxx11ERKi
FN:377,_ZN7testing8internal33FormatForComparisonFailureMessageIiiEENSt7__cxx1112basic_stringIcSt11char_traitsIcESaIcEEERKT_RKT0_
FNDA:0,_ZN7testing8internal33FormatForComparisonFailureMessageIiiEENSt7__cxx1112basic_stringIcSt11char_traitsIcESaIcEEERKT_RKT0_
FN:377,_ZN7testing8internal33FormatForComparisonFailureMessageISt6vectorIiSaIiEES4_EENSt7__cxx1112basic_stringIcSt11char_traitsIcESaIcEEERKT_RKT0_
FNDA:0,_ZN7testing8internal33FormatForComparisonFailureMessageISt6vectorIiSaIiEES4_EENSt7__cxx1112basic_stringIcSt11char_traitsIcESaIcEEERKT_RKT0_
FN:377,_ZN7testing8internal33FormatForComparisonFailureMessageIccEENSt7__cxx1112basic_stringIcSt11char_traitsIcESaIcEEERKT_RKT0_
FNDA:0,_ZN7testing8internal33FormatForComparisonFailureMessageIccEENSt7__cxx1112basic_stringIcSt11char_traitsIcESaIcEEERKT_RKT0_
FN:377,_ZN7testing8internal33FormatForComparisonFailureMessageImiEENSt7__cxx1112basic_stringIcSt11char_traitsIcESaIcEEERKT_RKT0_
FNDA:0,_ZN7testing8internal33FormatForComparisonFailureMessageImiEENSt7__cxx1112basic_stringIcSt11char_traitsIcESaIcEEERKT_RKT0_
FN:377,_ZN7testing8internal33FormatForComparisonFailureMessageIimEENSt7__cxx1112basic_stringIcSt11char_traitsIcESaIcEEERKT_RKT0_
FNDA:0,_ZN7testing8internal33FormatForComparisonFailureMessageIimEENSt7__cxx1112basic_stringIcSt11char_traitsIcESaIcEEERKT_RKT0_
FN:377,_ZN7testing8internal33FormatForComparisonFailureMessageISt6vectorIS2_IcSaIcEESaIS4_EES6_EENSt7__cxx1112basic_stringIcSt11char_traitsIcES3_EERKT_RKT0_
FNDA:0,_ZN7testing8internal33FormatForComparisonFailureMessageISt6vectorIS2_IcSaIcEESaIS4_EES6_EENSt7__cxx1112basic_stringIcSt11char_traitsIcES3_EERKT_RKT0_
FN:406,_ZN7testing8internal14DefaultPrintToISt6vectorIiSaIiEEEEvNS0_15WrapPrinterTypeILNS0_18DefaultPrinterTypeE0EEERKT_PSo
FNDA:0,_ZN7testing8internal14DefaultPrintToISt6vectorIiSaIiEEEEvNS0_15WrapPrinterTypeILNS0_18DefaultPrinterTypeE0EEERKT_PSo
FN:406,_ZN7testing8internal14DefaultPrintToISt6vectorIS2_IcSaIcEESaIS4_EEEEvNS0_15WrapPrinterTypeILNS0_18DefaultPrinterTypeE0EEERKT_PSo
FNDA:0,_ZN7testing8internal14DefaultPrintToISt6vectorIS2_IcSaIcEESaIS4_EEEEvNS0_15WrapPrinterTypeILNS0_18DefaultPrinterTypeE0EEERKT_PSo
FN:406,_ZN7testing8internal14DefaultPrintToISt6vectorIcSaIcEEEEvNS0_15WrapPrinterTypeILNS0_18DefaultPrinterTypeE0EEERKT_PSo
FNDA:0,_ZN7testing8internal14DefaultPrintToISt6vectorIcSaIcEEEEvNS0_15WrapPrinterTypeILNS0_18DefaultPrinterTypeE0EEERKT_PSo
FN:466,_ZN7testing8internal14DefaultPrintToImEEvNS0_15WrapPrinterTypeILNS0_18DefaultPrinterTypeE3EEERKT_PSo
FNDA:0,_ZN7testing8internal14DefaultPrintToImEEvNS0_15WrapPrinterTypeILNS0_18DefaultPrinterTypeE3EEERKT_PSo
FN:466,_ZN7testing8internal14DefaultPrintToIiEEvNS0_15WrapPrinterTypeILNS0_18DefaultPrinterTypeE3EEERKT_PSo
FNDA:0,_ZN7testing8internal14DefaultPrintToIiEEvNS0_15WrapPrinterTypeILNS0_18DefaultPrinterTypeE3EEERKT_PSo
FN:483,_ZN7testing8internal7PrintToISt6vectorIiSaIiEEEEvRKT_PSo
FNDA:0,_ZN7testing8internal7PrintToISt6vectorIiSaIiEEEEvRKT_PSo
FN:483,_ZN7testing8internal7PrintToIiEEvRKT_PSo
FNDA:0,_ZN7testing8internal7PrintToIiEEvRKT_PSo
FN:483,_ZN7testing8internal7PrintToImEEvRKT_PSo
FNDA:0,_ZN7testing8internal7PrintToImEEvRKT_PSo
FN:483,_ZN7testing8internal7PrintToISt6vectorIS2_IcSaIcEESaIS4_EEEEvRKT_PSo
FNDA:0,_ZN7testing8internal7PrintToISt6vectorIS2_IcSaIcEESaIS4_EEEEvRKT_PSo
FN:483,_ZN7testing8internal7PrintToISt6vectorIcSaIcEEEEvRKT_PSo
FNDA:0,_ZN7testing8internal7PrintToISt6vectorIcSaIcEEEEvRKT_PSo
FN:523,_ZN7testing8internal7PrintToEcPSo
FNDA:0,_ZN7testing8internal7PrintToEcPSo
FN:670,_ZN7testing8internal16UniversalPrinterISt6vectorIcSaIcEEE5PrintERKS4_PSo
FNDA:0,_ZN7testing8internal16UniversalPrinterISt6vectorIcSaIcEEE5PrintERKS4_PSo
FN:670,_ZN7testing8internal16UniversalPrinterISt6vectorIS2_IcSaIcEESaIS4_EEE5PrintERKS6_PSo
FNDA:0,_ZN7testing8internal16UniversalPrinterISt6vectorIS2_IcSaIcEESaIS4_EEE5PrintERKS6_PSo
FN:670,_ZN7testing8internal16UniversalPrinterImE5PrintERKmPSo
FNDA:0,_ZN7testing8internal16UniversalPrinterImE5PrintERKmPSo
FN:670,_ZN7testing8internal16UniversalPrinterIcE5PrintERKcPSo
FNDA:0,_ZN7testing8internal16UniversalPrinterIcE5PrintERKcPSo
FN:670,_ZN7testing8internal16UniversalPrinterISt6vectorIiSaIiEEE5PrintERKS4_PSo
FNDA:0,_ZN7testing8internal16UniversalPrinterISt6vectorIiSaIiEEE5PrintERKS4_PSo
FN:670,_ZN7testing8internal16UniversalPrinterIiE5PrintERKiPSo
FNDA:0,_ZN7testing8internal16UniversalPrinterIiE5PrintERKiPSo
FN:796,_ZN7testing8internal21UniversalTersePrinterIcE5PrintERKcPSo
FNDA:0,_ZN7testing8internal21UniversalTersePrinterIcE5PrintERKcPSo
FN:796,_ZN7testing8internal21UniversalTersePrinterISt6vectorIS2_IcSaIcEESaIS4_EEE5PrintERKS6_PSo
FNDA:0,_ZN7testing8internal21UniversalTersePrinterISt6vectorIS2_IcSaIcEESaIS4_EEE5PrintERKS6_PSo
FN:796,_ZN7testing8internal21UniversalTersePrinterImE5PrintERKmPSo
FNDA:0,_ZN7testing8internal21UniversalTersePrinterImE5PrintERKmPSo
FN:796,_ZN7testing8internal21UniversalTersePrinterIiE5PrintERKiPSo
FNDA:0,_ZN7testing8internal21UniversalTersePrinterIiE5PrintERKiPSo
FN:796,_ZN7testing8internal21UniversalTersePrinterISt6vectorIiSaIiEEE5PrintERKS4_PSo
FNDA:0,_ZN7testing8internal21UniversalTersePrinterISt6vectorIiSaIiEEE5PrintERKS4_PSo
FN:865,_ZN7testing8internal14UniversalPrintISt6vectorIiSaIiEEEEvRKT_PSo
FNDA:0,_ZN7testing8internal14UniversalPrintISt6vectorIiSaIiEEEEvRKT_PSo
FN:865,_ZN7testing8internal14UniversalPrintIcEEvRKT_PSo
FNDA:0,_ZN7testing8internal14UniversalPrintIcEEvRKT_PSo
FN:865,_ZN7testing8internal14UniversalPrintImEEvRKT_PSo
FNDA:0,_ZN7testing8internal14UniversalPrintImEEvRKT_PSo
FN:865,_ZN7testing8internal14UniversalPrintISt6vectorIS2_IcSaIcEESaIS4_EEEEvRKT_PSo
FNDA:0,_ZN7testing8internal14UniversalPrintISt6vectorIS2_IcSaIcEESaIS4_EEEEvRKT_PSo
FN:865,_ZN7testing8internal14UniversalPrintISt6vectorIcSaIcEEEEvRKT_PSo
FNDA:0,_ZN7testing8internal14UniversalPrintISt6vectorIcSaIcEEEEvRKT_PSo
FN:865,_ZN7testing8internal14UniversalPrintIiEEvRKT_PSo
FNDA:0,_ZN7testing8internal14UniversalPrintIiEEvRKT_PSo
FN:915,_ZN7testing13PrintToStringISt6vectorIiSaIiEEEENSt7__cxx1112basic_stringIcSt11char_traitsIcESaIcEEERKT_
FNDA:0,_ZN7testing13PrintToStringISt6vectorIiSaIiEEEENSt7__cxx1112basic_stringIcSt11char_traitsIcESaIcEEERKT_
FN:915,_ZN7testing13PrintToStringIiEENSt7__cxx1112basic_stringIcSt11char_traitsIcESaIcEEERKT_
FNDA:0,_ZN7testing13PrintToStringIiEENSt7__cxx1112basic_stringIcSt11char_traitsIcESaIcEEERKT_
FN:915,_ZN7testing13PrintToStringIcEENSt7__cxx1112basic_stringIcSt11char_traitsIcESaIcEEERKT_
FNDA:0,_ZN7testing13PrintToStringIcEENSt7__cxx1112basic_stringIcSt11char_traitsIcESaIcEEERKT_
FN:915,_ZN7testing13PrintToStringImEENSt7__cxx1112basic_stringIcSt11char_traitsIcESaIcEEERKT_
FNDA:0,_ZN7testing13PrintToStringImEENSt7__cxx1112basic_stringIcSt11char_traitsIcESaIcEEERKT_
FN:915,_ZN7testing13PrintToStringISt6vectorIS1_IcSaIcEESaIS3_EEEENSt7__cxx1112basic_stringIcSt11char_traitsIcES2_EERKT_
FNDA:0,_ZN7testing13PrintToStringISt6vectorIS1_IcSaIcEESaIS3_EEEENSt7__cxx1112basic_stringIcSt11char_traitsIcES2_EERKT_
DA:260,0
DA:287,0
DA:288,0
DA:260,0
DA:287,0
DA:288,0
DA:313,0
DA:314,0
DA:313,0
DA:314,0
DA:313,0
DA:314,0
DA:313,0
DA:314,0
DA:313,0
DA:314,0
DA:313,0
DA:314,0
DA:377,0
DA:379,0
DA:377,0
DA:379,0
DA:377,0
DA:379,0
DA:377,0
DA:379,0
DA:377,0
DA:379,0
DA:377,0
DA:379,0
DA:406,0
DA:408,0
DA:409,0
DA:410,0
DA:411,0
DA:412,0
DA:413,0
DA:414,0
DA:415,0
DA:416,0
DA:417,0
DA:420,0
DA:423,0
DA:426,0
DA:427,0
DA:429,0
DA:430,0
DA:406,0
DA:408,0
DA:409,0
DA:410,0
DA:411,0
DA:412,0
DA:413,0
DA:414,0
DA:415,0
DA:416,0
DA:417,0
DA:420,0
DA:423,0
DA:426,0
DA:427,0
DA:429,0
DA:430,0
DA:406,0
DA:408,0
DA:409,0
DA:410,0
DA:411,0
DA:412,0
DA:413,0
DA:414,0
DA:415,0
DA:416,0
DA:417,0
DA:420,0
DA:423,0
DA:426,0
DA:427,0
DA:429,0
DA:430,0
DA:466,0
DA:468,0
DA:469,0
DA:466,0
DA:468,0
DA:469,0
DA:483,0
DA:503,0
DA:514,0
DA:483,0
DA:503,0
DA:514,0
DA:483,0
DA:503,0
DA:514,0
DA:483,0
DA:503,0
DA:514,0
DA:483,0
DA:503,0
DA:514,0
DA:523,0
DA:527,0
DA:528,0
DA:670,0
DA:679,0
DA:680,0
DA:670,0
DA:679,0
DA:680,0
DA:670,0
DA:679,0
DA:680,0
DA:670,0
DA:679,0
DA:680,0
DA:670,0
DA:679,0
DA:680,0
DA:670,0
DA:679,0
DA:680,0
DA:796,0
DA:797,0
DA:798,0
DA:796,0
DA:797,0
DA:798,0
DA:796,0
DA:797,0
DA:798,0
DA:796,0
DA:797,0
DA:798,0
DA:796,0
DA:797,0
DA:798,0
DA:865,0
DA:869,0
DA:870,0
DA:865,0
DA:869,0
DA:870,0
DA:865,0
DA:869,0
DA:870,0
DA:865,0
DA:869,0
DA:870,0
DA:865,0
DA:869,0
DA:870,0
DA:865,0
DA:869,0
DA:870,0
DA:915,0
DA:916,0
DA:917,0
DA:918,0
DA:915,0
DA:916,0
DA:917,0
DA:918,0
DA:915,0
DA:916,0
DA:917,0
DA:918,0
DA:915,0
DA:916,0
DA:917,0
DA:918,0
DA:915,0
DA:916,0
DA:917,0
DA:918,0
end_of_record
SF:/usr/include/c++/9/limits
FN:1274,_ZNSt14numeric_limitsImE3maxEv
FNDA:0,_ZNSt14numeric_limitsImE3maxEv
DA:1274,0
end_of_record
SF:/usr/include/c++/9/tuple
FN:76,_ZNSt10_Head_baseILm1ESt14default_deleteINSt7__cxx1112basic_stringIcSt11char_traitsIcESaIcEEEELb1EEC2Ev
FNDA:4,_ZNSt10_Head_baseILm1ESt14default_deleteINSt7__cxx1112basic_stringIcSt11char_traitsIcESaIcEEEELb1EEC2Ev
FN:113,_ZNSt10_Head_baseILm1ESt14default_deleteINSt7__cxx1118basic_stringstreamIcSt11char_traitsIcESaIcEEEELb1EE7_M_headERS8_
FNDA:0,_ZNSt10_Head_baseILm1ESt14default_deleteINSt7__cxx1118basic_stringstreamIcSt11char_traitsIcESaIcEEEELb1EE7_M_headERS8_
FN:113,_ZNSt10_Head_baseILm1ESt14default_deleteINSt7__cxx1112basic_stringIcSt11char_traitsIcESaIcEEEELb1EE7_M_headERS8_
FNDA:0,_ZNSt10_Head_baseILm1ESt14default_deleteINSt7__cxx1112basic_stringIcSt11char_traitsIcESaIcEEEELb1EE7_M_headERS8_
FN:122,_ZNSt10_Head_baseILm0EPNSt7__cxx1112basic_stringIcSt11char_traitsIcESaIcEEELb0EEC2Ev
FNDA:4,_ZNSt10_Head_baseILm0EPNSt7__cxx1112basic_stringIcSt11char_traitsIcESaIcEEELb0EEC2Ev
FN:160,_ZNSt10_Head_baseILm0EPNSt7__cxx1118basic_stringstreamIcSt11char_traitsIcESaIcEEELb0EE7_M_headERS7_
FNDA:0,_ZNSt10_Head_baseILm0EPNSt7__cxx1118basic_stringstreamIcSt11char_traitsIcESaIcEEELb0EE7_M_headERS7_
FN:160,_ZNSt10_Head_baseILm0EPNSt7__cxx1112basic_stringIcSt11char_traitsIcESaIcEEELb0EE7_M_headERS7_
FNDA:13,_ZNSt10_Head_baseILm0EPNSt7__cxx1112basic_stringIcSt11char_traitsIcESaIcEEELb0EE7_M_headERS7_
FN:163,_ZNSt10_Head_baseILm0EPNSt7__cxx1112basic_stringIcSt11char_traitsIcESaIcEEELb0EE7_M_headERKS7_
FNDA:0,_ZNSt10_Head_baseILm0EPNSt7__cxx1112basic_stringIcSt11char_traitsIcESaIcEEELb0EE7_M_headERKS7_
FN:163,_ZNSt10_Head_baseILm0EPNSt7__cxx1118basic_stringstreamIcSt11char_traitsIcESaIcEEELb0EE7_M_headERKS7_
FNDA:0,_ZNSt10_Head_baseILm0EPNSt7__cxx1118basic_stringstreamIcSt11char_traitsIcESaIcEEELb0EE7_M_headERKS7_
FN:195,_ZNSt11_Tuple_implILm0EJPNSt7__cxx1112basic_stringIcSt11char_traitsIcESaIcEEESt14default_deleteIS5_EEE7_M_headERS9_
FNDA:13,_ZNSt11_Tuple_implILm0EJPNSt7__cxx1112basic_stringIcSt11char_traitsIcESaIcEEESt14default_deleteIS5_EEE7_M_headERS9_
FN:195,_ZNSt11_Tuple_implILm0EJPNSt7__cxx1118basic_stringstreamIcSt11char_traitsIcESaIcEEESt14default_deleteIS5_EEE7_M_headERS9_
FNDA:0,_ZNSt11_Tuple_implILm0EJPNSt7__cxx1118basic_stringstreamIcSt11char_traitsIcESaIcEEESt14default_deleteIS5_EEE7_M_headERS9_
FN:198,_ZNSt11_Tuple_implILm0EJPNSt7__cxx1118basic_stringstreamIcSt11char_traitsIcESaIcEEESt14default_deleteIS5_EEE7_M_headERKS9_
FNDA:0,_ZNSt11_Tuple_implILm0EJPNSt7__cxx1118basic_stringstreamIcSt11char_traitsIcESaIcEEESt14default_deleteIS5_EEE7_M_headERKS9_
FN:198,_ZNSt11_Tuple_implILm0EJPNSt7__cxx1112basic_stringIcSt11char_traitsIcESaIcEEESt14default_deleteIS5_EEE7_M_headERKS9_
FNDA:0,_ZNSt11_Tuple_implILm0EJPNSt7__cxx1112basic_stringIcSt11char_traitsIcESaIcEEESt14default_deleteIS5_EEE7_M_headERKS9_
FN:206,_ZNSt11_Tuple_implILm0EJPNSt7__cxx1112basic_stringIcSt11char_traitsIcESaIcEEESt14default_deleteIS5_EEEC2Ev
FNDA:4,_ZNSt11_Tuple_implILm0EJPNSt7__cxx1112basic_stringIcSt11char_traitsIcESaIcEEESt14default_deleteIS5_EEEC2Ev
FN:334,_ZNSt11_Tuple_implILm1EJSt14default_deleteINSt7__cxx1118basic_stringstreamIcSt11char_traitsIcESaIcEEEEEE7_M_headERS8_
FNDA:0,_ZNSt11_Tuple_implILm1EJSt14default_deleteINSt7__cxx1118basic_stringstreamIcSt11char_traitsIcESaIcEEEEEE7_M_headERS8_
FN:334,_ZNSt11_Tuple_implILm1EJSt14default_deleteINSt7__cxx1112basic_stringIcSt11char_traitsIcESaIcEEEEEE7_M_headERS8_
FNDA:0,_ZNSt11_Tuple_implILm1EJSt14default_deleteINSt7__cxx1112basic_stringIcSt11char_traitsIcESaIcEEEEEE7_M_headERS8_
FN:339,_ZNSt11_Tuple_implILm1EJSt14default_deleteINSt7__cxx1112basic_stringIcSt11char_traitsIcESaIcEEEEEEC2Ev
FNDA:4,_ZNSt11_Tuple_implILm1EJSt14default_deleteINSt7__cxx1112basic_stringIcSt11char_traitsIcESaIcEEEEEEC2Ev
FN:918,_ZNSt5tupleIJPNSt7__cxx1112basic_stringIcSt11char_traitsIcESaIcEEESt14default_deleteIS5_EEEC2IS6_S8_Lb1EEEv
FNDA:4,_ZNSt5tupleIJPNSt7__cxx1112basic_stringIcSt11char_traitsIcESaIcEEESt14default_deleteIS5_EEEC2IS6_S8_Lb1EEEv
FN:1309,_ZSt12__get_helperILm1ESt14default_deleteINSt7__cxx1118basic_stringstreamIcSt11char_traitsIcESaIcEEEEJEERT0_RSt11_Tuple_implIXT_EJS8_DpT1_EE
FNDA:0,_ZSt12__get_helperILm1ESt14default_deleteINSt7__cxx1118basic_stringstreamIcSt11char_traitsIcESaIcEEEEJEERT0_RSt11_Tuple_implIXT_EJS8_DpT1_EE
FN:1309,_ZSt12__get_helperILm0EPNSt7__cxx1112basic_stringIcSt11char_traitsIcESaIcEEEJSt14default_deleteIS5_EEERT0_RSt11_Tuple_implIXT_EJS9_DpT1_EE
FNDA:13,_ZSt12__get_helperILm0EPNSt7__cxx1112basic_stringIcSt11char_traitsIcESaIcEEEJSt14default_deleteIS5_EEERT0_RSt11_Tuple_implIXT_EJS9_DpT1_EE
FN:1309,_ZSt12__get_helperILm0EPNSt7__cxx1118basic_stringstreamIcSt11char_traitsIcESaIcEEEJSt14default_deleteIS5_EEERT0_RSt11_Tuple_implIXT_EJS9_DpT1_EE
FNDA:0,_ZSt12__get_helperILm0EPNSt7__cxx1118basic_stringstreamIcSt11char_traitsIcESaIcEEEJSt14default_deleteIS5_EEERT0_RSt11_Tuple_implIXT_EJS9_DpT1_EE
FN:1309,_ZSt12__get_helperILm1ESt14default_deleteINSt7__cxx1112basic_stringIcSt11char_traitsIcESaIcEEEEJEERT0_RSt11_Tuple_implIXT_EJS8_DpT1_EE
FNDA:0,_ZSt12__get_helperILm1ESt14default_deleteINSt7__cxx1112basic_stringIcSt11char_traitsIcESaIcEEEEJEERT0_RSt11_Tuple_implIXT_EJS8_DpT1_EE
FN:1314,_ZSt12__get_helperILm0EPNSt7__cxx1112basic_stringIcSt11char_traitsIcESaIcEEEJSt14default_deleteIS5_EEERKT0_RKSt11_Tuple_implIXT_EJS9_DpT1_EE
FNDA:0,_ZSt12__get_helperILm0EPNSt7__cxx1112basic_stringIcSt11char_traitsIcESaIcEEEJSt14default_deleteIS5_EEERKT0_RKSt11_Tuple_implIXT_EJS9_DpT1_EE
FN:1314,_ZSt12__get_helperILm0EPNSt7__cxx1118basic_stringstreamIcSt11char_traitsIcESaIcEEEJSt14default_deleteIS5_EEERKT0_RKSt11_Tuple_implIXT_EJS9_DpT1_EE
FNDA:0,_ZSt12__get_helperILm0EPNSt7__cxx1118basic_stringstreamIcSt11char_traitsIcESaIcEEEJSt14default_deleteIS5_EEERKT0_RKSt11_Tuple_implIXT_EJS9_DpT1_EE
FN:1320,_ZSt3getILm1EJPNSt7__cxx1112basic_stringIcSt11char_traitsIcESaIcEEESt14default_deleteIS5_EEERNSt13tuple_elementIXT_ESt5tupleIJDpT0_EEE4typeERSD_
FNDA:0,_ZSt3getILm1EJPNSt7__cxx1112basic_stringIcSt11char_traitsIcESaIcEEESt14default_deleteIS5_EEERNSt13tuple_elementIXT_ESt5tupleIJDpT0_EEE4typeERSD_
FN:1320,_ZSt3getILm1EJPNSt7__cxx1118basic_stringstreamIcSt11char_traitsIcESaIcEEESt14default_deleteIS5_EEERNSt13tuple_elementIXT_ESt5tupleIJDpT0_EEE4typeERSD_
FNDA:0,_ZSt3getILm1EJPNSt7__cxx1118basic_stringstreamIcSt11char_traitsIcESaIcEEESt14default_deleteIS5_EEERNSt13tuple_elementIXT_ESt5tupleIJDpT0_EEE4typeERSD_
FN:1320,_ZSt3getILm0EJPNSt7__cxx1112basic_stringIcSt11char_traitsIcESaIcEEESt14default_deleteIS5_EEERNSt13tuple_elementIXT_ESt5tupleIJDpT0_EEE4typeERSD_
FNDA:13,_ZSt3getILm0EJPNSt7__cxx1112basic_stringIcSt11char_traitsIcESaIcEEESt14default_deleteIS5_EEERNSt13tuple_elementIXT_ESt5tupleIJDpT0_EEE4typeERSD_
FN:1320,_ZSt3getILm0EJPNSt7__cxx1118basic_stringstreamIcSt11char_traitsIcESaIcEEESt14default_deleteIS5_EEERNSt13tuple_elementIXT_ESt5tupleIJDpT0_EEE4typeERSD_
FNDA:0,_ZSt3getILm0EJPNSt7__cxx1118basic_stringstreamIcSt11char_traitsIcESaIcEEESt14default_deleteIS5_EEERNSt13tuple_elementIXT_ESt5tupleIJDpT0_EEE4typeERSD_
FN:1326,_ZSt3getILm0EJPNSt7__cxx1118basic_stringstreamIcSt11char_traitsIcESaIcEEESt14default_deleteIS5_EEERKNSt13tuple_elementIXT_ESt5tupleIJDpT0_EEE4typeERKSD_
FNDA:0,_ZSt3getILm0EJPNSt7__cxx1118basic_stringstreamIcSt11char_traitsIcESaIcEEESt14default_deleteIS5_EEERKNSt13tuple_elementIXT_ESt5tupleIJDpT0_EEE4typeERKSD_
FN:1326,_ZSt3getILm0EJPNSt7__cxx1112basic_stringIcSt11char_traitsIcESaIcEEESt14default_deleteIS5_EEERKNSt13tuple_elementIXT_ESt5tupleIJDpT0_EEE4typeERKSD_
FNDA:0,_ZSt3getILm0EJPNSt7__cxx1112basic_stringIcSt11char_traitsIcESaIcEEESt14default_deleteIS5_EEERKNSt13tuple_elementIXT_ESt5tupleIJDpT0_EEE4typeERKSD_
DA:76,4
DA:77,4
DA:113,0
DA:113,0
DA:122,4
DA:123,4
DA:160,13
DA:160,0
DA:163,0
DA:163,0
DA:195,13
DA:195,0
DA:198,0
DA:198,0
DA:206,4
DA:207,4
DA:334,0
DA:334,0
DA:339,4
DA:340,4
DA:918,4
DA:919,4
DA:1309,0
DA:1310,0
DA:1309,0
DA:1310,0
DA:1309,13
DA:1310,13
DA:1309,0
DA:1310,0
DA:1314,0
DA:1315,0
DA:1314,0
DA:1315,0
DA:1320,0
DA:1321,0
DA:1320,0
DA:1321,0
DA:1320,13
DA:1321,13
DA:1320,0
DA:1321,0
DA:1326,0
DA:1327,0
DA:1326,0
DA:1327,0
end_of_record
SF:/usr/include/c++/9/bits/stl_algo.h
FN:3769,_ZSt22__gen_two_uniform_intsImRSt23mersenne_twister_engineImLm32ELm624ELm397ELm31ELm2567483615ELm11ELm4294967295ELm7ELm2636928640ELm15ELm4022730752ELm18ELm1812433253EEESt4pairIT_S4_ES4_S4_OT0_
FNDA:24,_ZSt22__gen_two_uniform_intsImRSt23mersenne_twister_engineImLm32ELm624ELm397ELm31ELm2567483615ELm11ELm4294967295ELm7ELm2636928640ELm15ELm4022730752ELm18ELm1812433253EEESt4pairIT_S4_ES4_S4_OT0_
FN:3792,_ZSt7shuffleIN9__gnu_cxx17__normal_iteratorIPiSt6vectorIiSaIiEEEERSt23mersenne_twister_engineImLm32ELm624ELm397ELm31ELm2567483615ELm11ELm4294967295ELm7ELm2636928640ELm15ELm4022730752ELm18ELm1812433253EEEvT_SA_OT0_
FNDA:6,_ZSt7shuffleIN9__gnu_cxx17__normal_iteratorIPiSt6vectorIiSaIiEEEERSt23mersenne_twister_engineImLm32ELm624ELm397ELm31ELm2567483615ELm11ELm4294967295ELm7ELm2636928640ELm15ELm4022730752ELm18ELm1812433253EEEvT_SA_OT0_
DA:3769,24
DA:3773,24
DA:3774,24
DA:3792,6
DA:3800,6
DA:3801,6
DA:3815,6
DA:3816,6
DA:3818,6
DA:3821,6
DA:3827,6
DA:3829,0
DA:3830,0
DA:3837,30
DA:3839,24
DA:3842,24
DA:3844,24
DA:3845,24
DA:3848,6
DA:3851,0
DA:3853,0
DA:3854,0
end_of_record
SF:/usr/include/c++/9/bits/basic_string.tcc
FN:206,_ZNSt7__cxx1112basic_stringIcSt11char_traitsIcESaIcEE12_M_constructIPcEEvT_S7_St20forward_iterator_tag
FNDA:0,_ZNSt7__cxx1112basic_stringIcSt11char_traitsIcESaIcEE12_M_constructIPcEEvT_S7_St20forward_iterator_tag
FN:206,_ZNSt7__cxx1112basic_stringIcSt11char_traitsIcESaIcEE12_M_constructIPKcEEvT_S8_St20forward_iterator_tag
FNDA:0,_ZNSt7__cxx1112basic_stringIcSt11char_traitsIcESaIcEE12_M_constructIPKcEEvT_S8_St20forward_iterator_tag
DA:206,0
DA:211,0
DA:212,0
DA:215,0
DA:217,0
DA:219,0
DA:220,0
DA:225,0
DA:226,0
DA:228,0
DA:229,0
DA:232,0
DA:233,0
DA:206,0
DA:211,0
DA:212,0
DA:215,0
DA:217,0
DA:219,0
DA:220,0
DA:225,0
DA:226,0
DA:228,0
DA:229,0
DA:232,0
DA:233,0
end_of_record
SF:/usr/include/c++/9/bits/vector.tcc
FN:109,_ZNSt6vectorIS_IcSaIcEESaIS1_EE12emplace_backIJS1_EEEvDpOT_
FNDA:0,_ZNSt6vectorIS_IcSaIcEESaIS1_EE12emplace_backIJS1_EEEvDpOT_
FN:109,_ZNSt6vectorIS_IS_IcSaIcEESaIS1_EESaIS3_EE12emplace_backIJS3_EEEvDpOT_
FNDA:0,_ZNSt6vectorIS_IS_IcSaIcEESaIS1_EESaIS3_EE12emplace_backIJS3_EEEvDpOT_
FN:109,_ZNSt6vectorISt4pairIiiESaIS1_EE12emplace_backIJS1_EEEvDpOT_
FNDA:1888,_ZNSt6vectorISt4pairIiiESaIS1_EE12emplace_backIJS1_EEEvDpOT_
FN:426,_ZNSt6vectorIS_IcSaIcEESaIS1_EE17_M_realloc_insertIJS1_EEEvN9__gnu_cxx17__normal_iteratorIPS1_S3_EEDpOT_
FNDA:0,_ZNSt6vectorIS_IcSaIcEESaIS1_EE17_M_realloc_insertIJS1_EEEvN9__gnu_cxx17__normal_iteratorIPS1_S3_EEDpOT_
FN:426,_ZNSt6vectorIS_IS_IcSaIcEESaIS1_EESaIS3_EE17_M_realloc_insertIJS3_EEEvN9__gnu_cxx17__normal_iteratorIPS3_S5_EEDpOT_
FNDA:0,_ZNSt6vectorIS_IS_IcSaIcEESaIS1_EESaIS3_EE17_M_realloc_insertIJS3_EEEvN9__gnu_cxx17__normal_iteratorIPS3_S5_EEDpOT_
FN:426,_ZNSt6vectorISt4pairIiiESaIS1_EE17_M_realloc_insertIJS1_EEEvN9__gnu_cxx17__normal_iteratorIPS1_S3_EEDpOT_
FNDA:27,_ZNSt6vectorISt4pairIiiESaIS1_EE17_M_realloc_insertIJS1_EEEvN9__gnu_cxx17__normal_iteratorIPS1_S3_EEDpOT_
FN:426,_ZNSt6vectorIcSaIcEE17_M_realloc_insertIJRKcEEEvN9__gnu_cxx17__normal_iteratorIPcS1_EEDpOT_
FNDA:0,_ZNSt6vectorIcSaIcEE17_M_realloc_insertIJRKcEEEvN9__gnu_cxx17__normal_iteratorIPcS1_EEDpOT_
FN:426,_ZNSt6vectorIS_IS_IcSaIcEESaIS1_EESaIS3_EE17_M_realloc_insertIJRKS3_EEEvN9__gnu_cxx17__normal_iteratorIPS3_S5_EEDpOT_
FNDA:8,_ZNSt6vectorIS_IS_IcSaIcEESaIS1_EESaIS3_EE17_M_realloc_insertIJRKS3_EEEvN9__gnu_cxx17__normal_iteratorIPS3_S5_EEDpOT_
DA:109,0
DA:112,0
DA:115,0
DA:117,0
DA:121,0
DA:125,0
DA:109,0
DA:112,0
DA:115,0
DA:117,0
DA:121,0
DA:125,0
DA:109,1888
DA:112,1888
DA:115,1861
DA:117,1861
DA:121,27
DA:125,1888
DA:426,0
DA:435,0
DA:437,0
DA:438,0
DA:439,0
DA:440,0
DA:441,0
DA:449,0
DA:450,0
DA:456,0
DA:459,0
DA:461,0
DA:462,0
DA:464,0
DA:466,0
DA:467,0
DA:474,0
DA:475,0
DA:477,0
DA:481,0
DA:482,0
DA:485,0
DA:487,0
DA:488,0
DA:489,0
DA:491,0
DA:492,0
DA:493,0
DA:496,0
DA:498,0
DA:500,0
DA:501,0
DA:502,0
DA:503,0
DA:504,0
DA:505,0
DA:426,0
DA:435,0
DA:437,0
DA:438,0
DA:439,0
DA:440,0
DA:441,0
DA:449,0
DA:450,0
DA:456,0
DA:459,0
DA:461,0
DA:462,0
DA:464,0
DA:466,0
DA:467,0
DA:474,0
DA:475,0
DA:477,0
DA:481,0
DA:482,0
DA:485,0
DA:487,0
DA:488,0
DA:489,0
DA:491,0
DA:492,0
DA:493,0
DA:496,0
DA:498,0
DA:500,0
DA:501,0
DA:502,0
DA:503,0
DA:504,0
DA:505,0
DA:426,27
DA:435,27
DA:437,27
DA:438,27
DA:439,27
DA:440,27
DA:441,27
DA:449,27
DA:450,27
DA:456,27
DA:459,27
DA:461,27
DA:462,27
DA:464,27
DA:466,27
DA:467,27
DA:474,0
DA:475,0
DA:477,0
DA:481,0
DA:482,0
DA:485,0
DA:487,0
DA:488,0
DA:489,0
DA:491,0
DA:492,0
DA:493,0
DA:496,27
DA:498,0
DA:500,27
DA:501,27
DA:502,27
DA:503,27
DA:504,27
DA:505,27
DA:426,0
DA:435,0
DA:437,0
DA:438,0
DA:439,0
DA:440,0
DA:441,0
DA:449,0
DA:456,0
DA:459,0
DA:461,0
DA:462,0
DA:464,0
DA:466,0
DA:467,0
DA:474,0
DA:475,0
DA:477,0
DA:481,0
DA:482,0
DA:485,0
DA:487,0
DA:488,0
DA:491,0
DA:492,0
DA:493,0
DA:496,0
DA:498,0
DA:500,0
DA:501,0
DA:502,0
DA:503,0
DA:504,0
DA:505,0
DA:426,8
DA:435,8
DA:437,8
DA:438,8
DA:439,8
DA:440,8
DA:441,8
DA:449,8
DA:450,8
DA:456,8
DA:459,8
DA:461,8
DA:462,8
DA:464,8
DA:466,8
DA:467,8
DA:474,0
DA:475,0
DA:477,0
DA:481,0
DA:482,0
DA:485,0
DA:487,0
DA:488,0
DA:489,0
DA:491,0
DA:492,0
DA:493,0
DA:496,8
DA:498,0
DA:500,8
DA:501,8
DA:502,8
DA:503,8
DA:504,8
DA:505,8
end_of_record
SF:/usr/include/c++/9/bits/stl_vector.h
FN:94,_ZNSt12_Vector_baseIiSaIiEE17_Vector_impl_dataC2Ev
FNDA:9,_ZNSt12_Vector_baseIiSaIiEE17_Vector_impl_dataC2Ev
FN:94,_ZNSt12_Vector_baseISt4pairIiiESaIS1_EE17_Vector_impl_dataC2Ev
FNDA:10,_ZNSt12_Vector_baseISt4pairIiiESaIS1_EE17_Vector_impl_dataC2Ev
FN:94,_ZNSt12_Vector_baseISt6vectorIS0_IcSaIcEESaIS2_EESaIS4_EE17_Vector_impl_dataC2Ev
FNDA:114,_ZNSt12_Vector_baseISt6vectorIS0_IcSaIcEESaIS2_EESaIS4_EE17_Vector_impl_dataC2Ev
FN:94,_ZNSt12_Vector_baseISt6vectorIcSaIcEESaIS2_EE17_Vector_impl_dataC2Ev
FNDA:430,_ZNSt12_Vector_baseISt6vectorIcSaIcEESaIS2_EE17_Vector_impl_dataC2Ev
FN:94,_ZNSt12_Vector_baseIcSaIcEE17_Vector_impl_dataC2Ev
FNDA:3911,_ZNSt12_Vector_baseIcSaIcEE17_Vector_impl_dataC2Ev
FN:99,_ZNSt12_Vector_baseIcSaIcEE17_Vector_impl_dataC2EOS2_
FNDA:0,_ZNSt12_Vector_baseIcSaIcEE17_Vector_impl_dataC2EOS2_
FN:99,_ZNSt12_Vector_baseISt6vectorIcSaIcEESaIS2_EE17_Vector_impl_dataC2EOS5_
FNDA:2,_ZNSt12_Vector_baseISt6vectorIcSaIcEESaIS2_EE17_Vector_impl_dataC2EOS5_
FN:106,_ZNSt12_Vector_baseISt6vectorIcSaIcEESaIS2_EE17_Vector_impl_data12_M_copy_dataERKS5_
FNDA:0,_ZNSt12_Vector_baseISt6vectorIcSaIcEESaIS2_EE17_Vector_impl_data12_M_copy_dataERKS5_
FN:114,_ZNSt12_Vector_baseISt6vectorIcSaIcEESaIS2_EE17_Vector_impl_data12_M_swap_dataERS5_
FNDA:0,_ZNSt12_Vector_baseISt6vectorIcSaIcEESaIS2_EE17_Vector_impl_data12_M_swap_dataERS5_
FN:128,_ZNSt12_Vector_baseISt6vectorIS0_IcSaIcEESaIS2_EESaIS4_EE12_Vector_implC2Ev
FNDA:11,_ZNSt12_Vector_baseISt6vectorIS0_IcSaIcEESaIS2_EESaIS4_EE12_Vector_implC2Ev
FN:128,_ZNSt12_Vector_baseISt4pairIiiESaIS1_EE12_Vector_implC2Ev
FNDA:10,_ZNSt12_Vector_baseISt4pairIiiESaIS1_EE12_Vector_implC2Ev
FN:128,_ZNSt12_Vector_baseISt6vectorIcSaIcEESaIS2_EE12_Vector_implC2Ev
FNDA:0,_ZNSt12_Vector_baseISt6vectorIcSaIcEESaIS2_EE12_Vector_implC2Ev
FN:128,_ZNSt12_Vector_baseIcSaIcEE12_Vector_implC2Ev
FNDA:0,_ZNSt12_Vector_baseIcSaIcEE12_Vector_implC2Ev
FN:133,_ZNSt12_Vector_baseISt6vectorIcSaIcEESaIS2_EE12_Vector_implC2ERKS3_
FNDA:430,_ZNSt12_Vector_baseISt6vectorIcSaIcEESaIS2_EE12_Vector_implC2ERKS3_
FN:133,_ZNSt12_Vector_baseISt6vectorIS0_IcSaIcEESaIS2_EESaIS4_EE12_Vector_implC2ERKS5_
FNDA:103,_ZNSt12_Vector_baseISt6vectorIS0_IcSaIcEESaIS2_EESaIS4_EE12_Vector_implC2ERKS5_
FN:133,_ZNSt12_Vector_baseIiSaIiEE12_Vector_implC2ERKS0_
FNDA:9,_ZNSt12_Vector_baseIiSaIiEE12_Vector_implC2ERKS0_
FN:133,_ZNSt12_Vector_baseIcSaIcEE12_Vector_implC2ERKS0_
FNDA:3911,_ZNSt12_Vector_baseIcSaIcEE12_Vector_implC2ERKS0_
FN:140,_ZNSt12_Vector_baseIcSaIcEE12_Vector_implC2EOS2_
FNDA:0,_ZNSt12_Vector_baseIcSaIcEE12_Vector_implC2EOS2_
FN:140,_ZNSt12_Vector_baseISt6vectorIcSaIcEESaIS2_EE12_Vector_implC2EOS5_
FNDA:2,_ZNSt12_Vector_baseISt6vectorIcSaIcEESaIS2_EE12_Vector_implC2EOS5_
FN:273,_ZNSt12_Vector_baseISt4pairIiiESaIS1_EE19_M_get_Tp_allocatorEv
FNDA:164,_ZNSt12_Vector_baseISt4pairIiiESaIS1_EE19_M_get_Tp_allocatorEv
FN:273,_ZNSt12_Vector_baseISt6vectorIS0_IcSaIcEESaIS2_EESaIS4_EE19_M_get_Tp_allocatorEv
FNDA:333,_ZNSt12_Vector_baseISt6vectorIS0_IcSaIcEESaIS2_EESaIS4_EE19_M_get_Tp_allocatorEv
FN:273,_ZNSt12_Vector_baseIcSaIcEE19_M_get_Tp_allocatorEv
FNDA:7858,_ZNSt12_Vector_baseIcSaIcEE19_M_get_Tp_allocatorEv
FN:273,_ZNSt12_Vector_baseIiSaIiEE19_M_get_Tp_allocatorEv
FNDA:20,_ZNSt12_Vector_baseIiSaIiEE19_M_get_Tp_allocatorEv
FN:273,_ZNSt12_Vector_baseISt6vectorIcSaIcEESaIS2_EE19_M_get_Tp_allocatorEv
FNDA:866,_ZNSt12_Vector_baseISt6vectorIcSaIcEESaIS2_EE19_M_get_Tp_allocatorEv
FN:277,_ZNKSt12_Vector_baseISt6vectorIS0_IcSaIcEESaIS2_EESaIS4_EE19_M_get_Tp_allocatorEv
FNDA:119,_ZNKSt12_Vector_baseISt6vectorIS0_IcSaIcEESaIS2_EESaIS4_EE19_M_get_Tp_allocatorEv
FN:277,_ZNKSt12_Vector_baseISt6vectorIcSaIcEESaIS2_EE19_M_get_Tp_allocatorEv
FNDA:421,_ZNKSt12_Vector_baseISt6vectorIcSaIcEESaIS2_EE19_M_get_Tp_allocatorEv
FN:277,_ZNKSt12_Vector_baseIcSaIcEE19_M_get_Tp_allocatorEv
FNDA:3870,_ZNKSt12_Vector_baseIcSaIcEE19_M_get_Tp_allocatorEv
FN:277,_ZNKSt12_Vector_baseIiSaIiEE19_M_get_Tp_allocatorEv
FNDA:1,_ZNKSt12_Vector_baseIiSaIiEE19_M_get_Tp_allocatorEv
FN:277,_ZNKSt12_Vector_baseISt4pairIiiESaIS1_EE19_M_get_Tp_allocatorEv
FNDA:54,_ZNKSt12_Vector_baseISt4pairIiiESaIS1_EE19_M_get_Tp_allocatorEv
FN:281,_ZNKSt12_Vector_baseISt6vectorIcSaIcEESaIS2_EE13get_allocatorEv
FNDA:0,_ZNKSt12_Vector_baseISt6vectorIcSaIcEESaIS2_EE13get_allocatorEv
FN:285,_ZNSt12_Vector_baseIcSaIcEEC2Ev
FNDA:0,_ZNSt12_Vector_baseIcSaIcEEC2Ev
FN:285,_ZNSt12_Vector_baseISt6vectorIcSaIcEESaIS2_EEC2Ev
FNDA:0,_ZNSt12_Vector_baseISt6vectorIcSaIcEESaIS2_EEC2Ev
FN:285,_ZNSt12_Vector_baseISt4pairIiiESaIS1_EEC2Ev
FNDA:10,_ZNSt12_Vector_baseISt4pairIiiESaIS1_EEC2Ev
FN:285,_ZNSt12_Vector_baseISt6vectorIS0_IcSaIcEESaIS2_EESaIS4_EEC2Ev
FNDA:11,_ZNSt12_Vector_baseISt6vectorIS0_IcSaIcEESaIS2_EESaIS4_EEC2Ev
FN:290,_ZNSt12_Vector_baseIcSaIcEEC2ERKS0_
FNDA:36,_ZNSt12_Vector_baseIcSaIcEEC2ERKS0_
FN:290,_ZNSt12_Vector_baseISt6vectorIcSaIcEESaIS2_EEC2ERKS3_
FNDA:4,_ZNSt12_Vector_baseISt6vectorIcSaIcEESaIS2_EEC2ERKS3_
FN:290,_ZNSt12_Vector_baseIiSaIiEEC2ERKS0_
FNDA:2,_ZNSt12_Vector_baseIiSaIiEEC2ERKS0_
FN:300,_ZNSt12_Vector_baseIiSaIiEEC2EmRKS0_
FNDA:7,_ZNSt12_Vector_baseIiSaIiEEC2EmRKS0_
FN:300,_ZNSt12_Vector_baseISt6vectorIS0_IcSaIcEESaIS2_EESaIS4_EEC2EmRKS5_
FNDA:103,_ZNSt12_Vector_baseISt6vectorIS0_IcSaIcEESaIS2_EESaIS4_EEC2EmRKS5_
FN:300,_ZNSt12_Vector_baseIcSaIcEEC2EmRKS0_
FNDA:3875,_ZNSt12_Vector_baseIcSaIcEEC2EmRKS0_
FN:300,_ZNSt12_Vector_baseISt6vectorIcSaIcEESaIS2_EEC2EmRKS3_
FNDA:426,_ZNSt12_Vector_baseISt6vectorIcSaIcEESaIS2_EEC2EmRKS3_
FN:305,_ZNSt12_Vector_baseISt6vectorIcSaIcEESaIS2_EEC2EOS4_
FNDA:2,_ZNSt12_Vector_baseISt6vectorIcSaIcEESaIS2_EEC2EOS4_
FN:305,_ZNSt12_Vector_baseIcSaIcEEC2EOS1_
FNDA:0,_ZNSt12_Vector_baseIcSaIcEEC2EOS1_
FN:330,_ZNSt12_Vector_baseIcSaIcEED2Ev
FNDA:3911,_ZNSt12_Vector_baseIcSaIcEED2Ev
FN:330,_ZNSt12_Vector_baseISt6vectorIS0_IcSaIcEESaIS2_EESaIS4_EED2Ev
FNDA:114,_ZNSt12_Vector_baseISt6vectorIS0_IcSaIcEESaIS2_EESaIS4_EED2Ev
FN:330,_ZNSt12_Vector_baseISt6vectorIcSaIcEESaIS2_EED2Ev
FNDA:432,_ZNSt12_Vector_baseISt6vectorIcSaIcEESaIS2_EED2Ev
FN:330,_ZNSt12_Vector_baseISt4pairIiiESaIS1_EED2Ev
FNDA:10,_ZNSt12_Vector_baseISt4pairIiiESaIS1_EED2Ev
FN:330,_ZNSt12_Vector_baseIiSaIiEED2Ev
FNDA:9,_ZNSt12_Vector_baseIiSaIiEED2Ev
FN:340,_ZNSt12_Vector_baseIcSaIcEE11_M_allocateEm
FNDA:3911,_ZNSt12_Vector_baseIcSaIcEE11_M_allocateEm
FN:340,_ZNSt12_Vector_baseISt4pairIiiESaIS1_EE11_M_allocateEm
FNDA:27,_ZNSt12_Vector_baseISt4pairIiiESaIS1_EE11_M_allocateEm
FN:340,_ZNSt12_Vector_baseISt6vectorIS0_IcSaIcEESaIS2_EESaIS4_EE11_M_allocateEm
FNDA:111,_ZNSt12_Vector_baseISt6vectorIS0_IcSaIcEESaIS2_EESaIS4_EE11_M_allocateEm
FN:340,_ZNSt12_Vector_baseISt6vectorIcSaIcEESaIS2_EE11_M_allocateEm
FNDA:430,_ZNSt12_Vector_baseISt6vectorIcSaIcEESaIS2_EE11_M_allocateEm
FN:340,_ZNSt12_Vector_baseIiSaIiEE11_M_allocateEm
FNDA:9,_ZNSt12_Vector_baseIiSaIiEE11_M_allocateEm
FN:347,_ZNSt12_Vector_baseISt6vectorIS0_IcSaIcEESaIS2_EESaIS4_EE13_M_deallocateEPS4_m
FNDA:122,_ZNSt12_Vector_baseISt6vectorIS0_IcSaIcEESaIS2_EESaIS4_EE13_M_deallocateEPS4_m
FN:347,_ZNSt12_Vector_baseIiSaIiEE13_M_deallocateEPim
FNDA:9,_ZNSt12_Vector_baseIiSaIiEE13_M_deallocateEPim
FN:347,_ZNSt12_Vector_baseIcSaIcEE13_M_deallocateEPcm
FNDA:3911,_ZNSt12_Vector_baseIcSaIcEE13_M_deallocateEPcm
FN:347,_ZNSt12_Vector_baseISt6vectorIcSaIcEESaIS2_EE13_M_deallocateEPS2_m
FNDA:432,_ZNSt12_Vector_baseISt6vectorIcSaIcEESaIS2_EE13_M_deallocateEPS2_m
FN:347,_ZNSt12_Vector_baseISt4pairIiiESaIS1_EE13_M_deallocateEPS1_m
FNDA:37,_ZNSt12_Vector_baseISt4pairIiiESaIS1_EE13_M_deallocateEPS1_m
FN:356,_ZNSt12_Vector_baseISt6vectorIcSaIcEESaIS2_EE17_M_create_storageEm
FNDA:426,_ZNSt12_Vector_baseISt6vectorIcSaIcEESaIS2_EE17_M_create_storageEm
FN:356,_ZNSt12_Vector_baseIcSaIcEE17_M_create_storageEm
FNDA:3875,_ZNSt12_Vector_baseIcSaIcEE17_M_create_storageEm
FN:356,_ZNSt12_Vector_baseIiSaIiEE17_M_create_storageEm
FNDA:7,_ZNSt12_Vector_baseIiSaIiEE17_M_create_storageEm
FN:356,_ZNSt12_Vector_baseISt6vectorIS0_IcSaIcEESaIS2_EESaIS4_EE17_M_create_storageEm
FNDA:103,_ZNSt12_Vector_baseISt6vectorIS0_IcSaIcEESaIS2_EESaIS4_EE17_M_create_storageEm
FN:428,_ZNSt6vectorIcSaIcEE19_S_nothrow_relocateESt17integral_constantIbLb1EE
FNDA:0,_ZNSt6vectorIcSaIcEE19_S_nothrow_relocateESt17integral_constantIbLb1EE
FN:428,_ZNSt6vectorIS_IS_IcSaIcEESaIS1_EESaIS3_EE19_S_nothrow_relocateESt17integral_constantIbLb1EE
FNDA:16,_ZNSt6vectorIS_IS_IcSaIcEESaIS1_EESaIS3_EE19_S_nothrow_relocateESt17integral_constantIbLb1EE
FN:428,_ZNSt6vectorISt4pairIiiESaIS1_EE19_S_nothrow_relocateESt17integral_constantIbLb1EE
FNDA:54,_ZNSt6vectorISt4pairIiiESaIS1_EE19_S_nothrow_relocateESt17integral_constantIbLb1EE
FN:428,_ZNSt6vectorIS_IcSaIcEESaIS1_EE19_S_nothrow_relocateESt17integral_constantIbLb1EE
FNDA:0,_ZNSt6vectorIS_IcSaIcEESaIS1_EE19_S_nothrow_relocateESt17integral_constantIbLb1EE
FN:441,_ZNSt6vectorIS_IS_IcSaIcEESaIS1_EESaIS3_EE15_S_use_relocateEv
FNDA:16,_ZNSt6vectorIS_IS_IcSaIcEESaIS1_EESaIS3_EE15_S_use_relocateEv
FN:441,_ZNSt6vectorISt4pairIiiESaIS1_EE15_S_use_relocateEv
FNDA:54,_ZNSt6vectorISt4pairIiiESaIS1_EE15_S_use_relocateEv
FN:441,_ZNSt6vectorIS_IcSaIcEESaIS1_EE15_S_use_relocateEv
FNDA:0,_ZNSt6vectorIS_IcSaIcEESaIS1_EE15_S_use_relocateEv
FN:441,_ZNSt6vectorIcSaIcEE15_S_use_relocateEv
FNDA:0,_ZNSt6vectorIcSaIcEE15_S_use_relocateEv
FN:450,_ZNSt6vectorIcSaIcEE14_S_do_relocateEPcS2_S2_RS0_St17integral_constantIbLb1EE
FNDA:0,_ZNSt6vectorIcSaIcEE14_S_do_relocateEPcS2_S2_RS0_St17integral_constantIbLb1EE
FN:450,_ZNSt6vectorIS_IS_IcSaIcEESaIS1_EESaIS3_EE14_S_do_relocateEPS3_S6_S6_RS4_St17integral_constantIbLb1EE
FNDA:16,_ZNSt6vectorIS_IS_IcSaIcEESaIS1_EESaIS3_EE14_S_do_relocateEPS3_S6_S6_RS4_St17integral_constantIbLb1EE
FN:450,_ZNSt6vectorIS_IcSaIcEESaIS1_EE14_S_do_relocateEPS1_S4_S4_RS2_St17integral_constantIbLb1EE
FNDA:0,_ZNSt6vectorIS_IcSaIcEESaIS1_EE14_S_do_relocateEPS1_S4_S4_RS2_St17integral_constantIbLb1EE
FN:450,_ZNSt6vectorISt4pairIiiESaIS1_EE14_S_do_relocateEPS1_S4_S4_RS2_St17integral_constantIbLb1EE
FNDA:54,_ZNSt6vectorISt4pairIiiESaIS1_EE14_S_do_relocateEPS1_S4_S4_RS2_St17integral_constantIbLb1EE
FN:462,_ZNSt6vectorISt4pairIiiESaIS1_EE11_S_relocateEPS1_S4_S4_RS2_
FNDA:54,_ZNSt6vectorISt4pairIiiESaIS1_EE11_S_relocateEPS1_S4_S4_RS2_
FN:462,_ZNSt6vectorIcSaIcEE11_S_relocateEPcS2_S2_RS0_
FNDA:0,_ZNSt6vectorIcSaIcEE11_S_relocateEPcS2_S2_RS0_
FN:462,_ZNSt6vectorIS_IcSaIcEESaIS1_EE11_S_relocateEPS1_S4_S4_RS2_
FNDA:0,_ZNSt6vectorIS_IcSaIcEESaIS1_EE11_S_relocateEPS1_S4_S4_RS2_
FN:462,_ZNSt6vectorIS_IS_IcSaIcEESaIS1_EESaIS3_EE11_S_relocateEPS3_S6_S6_RS4_
FNDA:16,_ZNSt6vectorIS_IS_IcSaIcEESaIS1_EESaIS3_EE11_S_relocateEPS3_S6_S6_RS4_
FN:484,_ZNSt6vectorISt4pairIiiESaIS1_EEC2Ev
FNDA:10,_ZNSt6vectorISt4pairIiiESaIS1_EEC2Ev
FN:484,_ZNSt6vectorIS_IS_IcSaIcEESaIS1_EESaIS3_EEC2Ev
FNDA:11,_ZNSt6vectorIS_IS_IcSaIcEESaIS1_EESaIS3_EEC2Ev
FN:484,_ZNSt6vectorIS_IcSaIcEESaIS1_EEC2Ev
FNDA:0,_ZNSt6vectorIS_IcSaIcEESaIS1_EEC2Ev
FN:484,_ZNSt6vectorIcSaIcEEC2Ev
FNDA:0,_ZNSt6vectorIcSaIcEEC2Ev
FN:494,_ZNSt6vectorIS_IcSaIcEESaIS1_EEC2ERKS2_
FNDA:0,_ZNSt6vectorIS_IcSaIcEESaIS1_EEC2ERKS2_
FN:507,_ZNSt6vectorIiSaIiEEC2EmRKS0_
FNDA:6,_ZNSt6vectorIiSaIiEEC2EmRKS0_
FN:519,_ZNSt6vectorIcSaIcEEC2EmRKcRKS0_
FNDA:5,_ZNSt6vectorIcSaIcEEC2EmRKcRKS0_
FN:519,_ZNSt6vectorIS_IcSaIcEESaIS1_EEC2EmRKS1_RKS2_
FNDA:5,_ZNSt6vectorIS_IcSaIcEESaIS1_EEC2EmRKS1_RKS2_
FN:550,_ZNSt6vectorIS_IcSaIcEESaIS1_EEC2ERKS3_
FNDA:421,_ZNSt6vectorIS_IcSaIcEESaIS1_EEC2ERKS3_
FN:550,_ZNSt6vectorIS_IS_IcSaIcEESaIS1_EESaIS3_EEC2ERKS5_
FNDA:103,_ZNSt6vectorIS_IS_IcSaIcEESaIS1_EESaIS3_EEC2ERKS5_
FN:550,_ZNSt6vectorIcSaIcEEC2ERKS1_
FNDA:3870,_ZNSt6vectorIcSaIcEEC2ERKS1_
FN:550,_ZNSt6vectorIiSaIiEEC2ERKS1_
FNDA:1,_ZNSt6vectorIiSaIiEEC2ERKS1_
FN:569,_ZNSt6vectorIS_IcSaIcEESaIS1_EEC2EOS3_
FNDA:2,_ZNSt6vectorIS_IcSaIcEESaIS1_EEC2EOS3_
FN:569,_ZNSt6vectorIcSaIcEEC2EOS1_
FNDA:0,_ZNSt6vectorIcSaIcEEC2EOS1_
FN:622,_ZNSt6vectorIS_IcSaIcEESaIS1_EEC2ESt16initializer_listIS1_ERKS2_
FNDA:4,_ZNSt6vectorIS_IcSaIcEESaIS1_EEC2ESt16initializer_listIS1_ERKS2_
FN:622,_ZNSt6vectorIcSaIcEEC2ESt16initializer_listIcERKS0_
FNDA:36,_ZNSt6vectorIcSaIcEEC2ESt16initializer_listIcERKS0_
FN:622,_ZNSt6vectorIiSaIiEEC2ESt16initializer_listIiERKS0_
FNDA:2,_ZNSt6vectorIiSaIiEEC2ESt16initializer_listIiERKS0_
FN:675,_ZNSt6vectorIS_IS_IcSaIcEESaIS1_EESaIS3_EED2Ev
FNDA:114,_ZNSt6vectorIS_IS_IcSaIcEESaIS1_EESaIS3_EED2Ev
FN:675,_ZNSt6vectorISt4pairIiiESaIS1_EED2Ev
FNDA:10,_ZNSt6vectorISt4pairIiiESaIS1_EED2Ev
FN:675,_ZNSt6vectorIS_IcSaIcEESaIS1_EED2Ev
FNDA:432,_ZNSt6vectorIS_IcSaIcEESaIS1_EED2Ev
FN:675,_ZNSt6vectorIiSaIiEED2Ev
FNDA:9,_ZNSt6vectorIiSaIiEED2Ev
FN:675,_ZNSt6vectorIcSaIcEED2Ev
FNDA:3911,_ZNSt6vectorIcSaIcEED2Ev
FN:706,_ZNSt6vectorIS_IcSaIcEESaIS1_EEaSEOS3_
FNDA:0,_ZNSt6vectorIS_IcSaIcEESaIS1_EEaSEOS3_
FN:808,_ZNSt6vectorIS_IS_IcSaIcEESaIS1_EESaIS3_EE5beginEv
FNDA:8,_ZNSt6vectorIS_IS_IcSaIcEESaIS1_EESaIS3_EE5beginEv
FN:808,_ZNSt6vectorIS_IcSaIcEESaIS1_EE5beginEv
FNDA:0,_ZNSt6vectorIS_IcSaIcEESaIS1_EE5beginEv
FN:808,_ZNSt6vectorIcSaIcEE5beginEv
FNDA:0,_ZNSt6vectorIcSaIcEE5beginEv
FN:808,_ZNSt6vectorIiSaIiEE5beginEv
FNDA:12,_ZNSt6vectorIiSaIiEE5beginEv
FN:808,_ZNSt6vectorISt4pairIiiESaIS1_EE5beginEv
FNDA:27,_ZNSt6vectorISt4pairIiiESaIS1_EE5beginEv
FN:817,_ZNKSt6vectorIcSaIcEE5beginEv
FNDA:3888,_ZNKSt6vectorIcSaIcEE5beginEv
FN:817,_ZNKSt6vectorIS_IcSaIcEESaIS1_EE5beginEv
FNDA:423,_ZNKSt6vectorIS_IcSaIcEESaIS1_EE5beginEv
FN:817,_ZNKSt6vectorIiSaIiEE5beginEv
FNDA:3,_ZNKSt6vectorIiSaIiEE5beginEv
FN:817,_ZNKSt6vectorIS_IS_IcSaIcEESaIS1_EESaIS3_EE5beginEv
FNDA:103,_ZNKSt6vectorIS_IS_IcSaIcEESaIS1_EESaIS3_EE5beginEv
FN:826,_ZNSt6vectorIiSaIiEE3endEv
FNDA:12,_ZNSt6vectorIiSaIiEE3endEv
FN:826,_ZNSt6vectorIS_IcSaIcEESaIS1_EE3endEv
FNDA:0,_ZNSt6vectorIS_IcSaIcEESaIS1_EE3endEv
FN:826,_ZNSt6vectorIcSaIcEE3endEv
FNDA:0,_ZNSt6vectorIcSaIcEE3endEv
FN:826,_ZNSt6vectorIS_IS_IcSaIcEESaIS1_EESaIS3_EE3endEv
FNDA:8,_ZNSt6vectorIS_IS_IcSaIcEESaIS1_EESaIS3_EE3endEv
FN:826,_ZNSt6vectorISt4pairIiiESaIS1_EE3endEv
FNDA:27,_ZNSt6vectorISt4pairIiiESaIS1_EE3endEv
FN:835,_ZNKSt6vectorIS_IS_IcSaIcEESaIS1_EESaIS3_EE3endEv
FNDA:103,_ZNKSt6vectorIS_IS_IcSaIcEESaIS1_EESaIS3_EE3endEv
FN:835,_ZNKSt6vectorIiSaIiEE3endEv
FNDA:2,_ZNKSt6vectorIiSaIiEE3endEv
FN:835,_ZNKSt6vectorIS_IcSaIcEESaIS1_EE3endEv
FNDA:422,_ZNKSt6vectorIS_IcSaIcEESaIS1_EE3endEv
FN:835,_ZNKSt6vectorIcSaIcEE3endEv
FNDA:3879,_ZNKSt6vectorIcSaIcEE3endEv
FN:915,_ZNKSt6vectorIiSaIiEE4sizeEv
FNDA:4,_ZNKSt6vectorIiSaIiEE4sizeEv
FN:915,_ZNKSt6vectorIcSaIcEE4sizeEv
FNDA:3978,_ZNKSt6vectorIcSaIcEE4sizeEv
FN:915,_ZNKSt6vectorIS_IS_IcSaIcEESaIS1_EESaIS3_EE4sizeEv
FNDA:239,_ZNKSt6vectorIS_IS_IcSaIcEESaIS1_EESaIS3_EE4sizeEv
FN:915,_ZNKSt6vectorIS_IcSaIcEESaIS1_EE4sizeEv
FNDA:433,_ZNKSt6vectorIS_IcSaIcEESaIS1_EE4sizeEv
FN:915,_ZNKSt6vectorISt4pairIiiESaIS1_EE4sizeEv
FNDA:8043,_ZNKSt6vectorISt4pairIiiESaIS1_EE4sizeEv
FN:920,_ZNKSt6vectorIS_IcSaIcEESaIS1_EE8max_sizeEv
FNDA:0,_ZNKSt6vectorIS_IcSaIcEESaIS1_EE8max_sizeEv
FN:920,_ZNKSt6vectorISt4pairIiiESaIS1_EE8max_sizeEv
FNDA:54,_ZNKSt6vectorISt4pairIiiESaIS1_EE8max_sizeEv
FN:920,_ZNKSt6vectorIcSaIcEE8max_sizeEv
FNDA:0,_ZNKSt6vectorIcSaIcEE8max_sizeEv
FN:920,_ZNKSt6vectorIS_IS_IcSaIcEESaIS1_EESaIS3_EE8max_sizeEv
FNDA:16,_ZNKSt6vectorIS_IS_IcSaIcEESaIS1_EESaIS3_EE8max_sizeEv
FN:1040,_ZNSt6vectorISt4pairIiiESaIS1_EEixEm
FNDA:15660,_ZNSt6vectorISt4pairIiiESaIS1_EEixEm
FN:1040,_ZNSt6vectorIcSaIcEEixEm
FNDA:31113,_ZNSt6vectorIcSaIcEEixEm
FN:1040,_ZNSt6vectorIiSaIiEEixEm
FNDA:48,_ZNSt6vectorIiSaIiEEixEm
FN:1040,_ZNSt6vectorIS_IcSaIcEESaIS1_EEixEm
FNDA:31203,_ZNSt6vectorIS_IcSaIcEESaIS1_EEixEm
FN:1040,_ZNSt6vectorIS_IS_IcSaIcEESaIS1_EESaIS3_EEixEm
FNDA:182,_ZNSt6vectorIS_IS_IcSaIcEESaIS1_EESaIS3_EEixEm
FN:1058,_ZNKSt6vectorIiSaIiEEixEm
FNDA:0,_ZNKSt6vectorIiSaIiEEixEm
FN:1058,_ZNKSt6vectorIcSaIcEEixEm
FNDA:1546,_ZNKSt6vectorIcSaIcEEixEm
FN:1058,_ZNKSt6vectorIS_IcSaIcEESaIS1_EEixEm
FNDA:1546,_ZNKSt6vectorIS_IcSaIcEESaIS1_EEixEm
FN:1184,_ZNSt6vectorIS_IS_IcSaIcEESaIS1_EESaIS3_EE9push_backERKS3_
FNDA:107,_ZNSt6vectorIS_IS_IcSaIcEESaIS1_EESaIS3_EE9push_backERKS3_
FN:1184,_ZNSt6vectorIcSaIcEE9push_backERKc
FNDA:0,_ZNSt6vectorIcSaIcEE9push_backERKc
FN:1200,_ZNSt6vectorIS_IcSaIcEESaIS1_EE9push_backEOS1_
FNDA:0,_ZNSt6vectorIS_IcSaIcEESaIS1_EE9push_backEOS1_
FN:1200,_ZNSt6vectorISt4pairIiiESaIS1_EE9push_backEOS1_
FNDA:1888,_ZNSt6vectorISt4pairIiiESaIS1_EE9push_backEOS1_
FN:1200,_ZNSt6vectorIS_IS_IcSaIcEESaIS1_EESaIS3_EE9push_backEOS3_
FNDA:0,_ZNSt6vectorIS_IS_IcSaIcEESaIS1_EESaIS3_EE9push_backEOS3_
FN:1495,_ZNSt6vectorIS_IcSaIcEESaIS1_EE5clearEv
FNDA:0,_ZNSt6vectorIS_IcSaIcEESaIS1_EE5clearEv
FN:1495,_ZNSt6vectorIS_IS_IcSaIcEESaIS1_EESaIS3_EE5clearEv
FNDA:118,_ZNSt6vectorIS_IS_IcSaIcEESaIS1_EESaIS3_EE5clearEv
FN:1495,_ZNSt6vectorISt4pairIiiESaIS1_EE5clearEv
FNDA:118,_ZNSt6vectorISt4pairIiiESaIS1_EE5clearEv
FN:1495,_ZNSt6vectorIcSaIcEE5clearEv
FNDA:0,_ZNSt6vectorIcSaIcEE5clearEv
FN:1574,_ZNSt6vectorIS_IcSaIcEESaIS1_EE19_M_range_initializeIPKS1_EEvT_S7_St20forward_iterator_tag
FNDA:4,_ZNSt6vectorIS_IcSaIcEESaIS1_EE19_M_range_initializeIPKS1_EEvT_S7_St20forward_iterator_tag
FN:1574,_ZNSt6vectorIcSaIcEE19_M_range_initializeIPKcEEvT_S5_St20forward_iterator_tag
FNDA:36,_ZNSt6vectorIcSaIcEE19_M_range_initializeIPKcEEvT_S5_St20forward_iterator_tag
FN:1574,_ZNSt6vectorIiSaIiEE19_M_range_initializeIPKiEEvT_S5_St20forward_iterator_tag
FNDA:2,_ZNSt6vectorIiSaIiEE19_M_range_initializeIPKiEEvT_S5_St20forward_iterator_tag
FN:1590,_ZNSt6vectorIS_IcSaIcEESaIS1_EE18_M_fill_initializeEmRKS1_
FNDA:5,_ZNSt6vectorIS_IcSaIcEESaIS1_EE18_M_fill_initializeEmRKS1_
FN:1590,_ZNSt6vectorIcSaIcEE18_M_fill_initializeEmRKc
FNDA:5,_ZNSt6vectorIcSaIcEE18_M_fill_initializeEmRKc
FN:1600,_ZNSt6vectorIiSaIiEE21_M_default_initializeEm
FNDA:6,_ZNSt6vectorIiSaIiEE21_M_default_initializeEm
FN:1753,_ZNKSt6vectorIS_IS_IcSaIcEESaIS1_EESaIS3_EE12_M_check_lenEmPKc
FNDA:8,_ZNKSt6vectorIS_IS_IcSaIcEESaIS1_EESaIS3_EE12_M_check_lenEmPKc
FN:1753,_ZNKSt6vectorISt4pairIiiESaIS1_EE12_M_check_lenEmPKc
FNDA:27,_ZNKSt6vectorISt4pairIiiESaIS1_EE12_M_check_lenEmPKc
FN:1753,_ZNKSt6vectorIcSaIcEE12_M_check_lenEmPKc
FNDA:0,_ZNKSt6vectorIcSaIcEE12_M_check_lenEmPKc
FN:1753,_ZNKSt6vectorIS_IcSaIcEESaIS1_EE12_M_check_lenEmPKc
FNDA:0,_ZNKSt6vectorIS_IcSaIcEESaIS1_EE12_M_check_lenEmPKc
FN:1764,_ZNSt6vectorIcSaIcEE17_S_check_init_lenEmRKS0_
FNDA:41,_ZNSt6vectorIcSaIcEE17_S_check_init_lenEmRKS0_
FN:1764,_ZNSt6vectorIiSaIiEE17_S_check_init_lenEmRKS0_
FNDA:8,_ZNSt6vectorIiSaIiEE17_S_check_init_lenEmRKS0_
FN:1764,_ZNSt6vectorIS_IcSaIcEESaIS1_EE17_S_check_init_lenEmRKS2_
FNDA:9,_ZNSt6vectorIS_IcSaIcEESaIS1_EE17_S_check_init_lenEmRKS2_
FN:1773,_ZNSt6vectorIS_IS_IcSaIcEESaIS1_EESaIS3_EE11_S_max_sizeERKS4_
FNDA:16,_ZNSt6vectorIS_IS_IcSaIcEESaIS1_EESaIS3_EE11_S_max_sizeERKS4_
FN:1773,_ZNSt6vectorISt4pairIiiESaIS1_EE11_S_max_sizeERKS2_
FNDA:54,_ZNSt6vectorISt4pairIiiESaIS1_EE11_S_max_sizeERKS2_
FN:1773,_ZNSt6vectorIiSaIiEE11_S_max_sizeERKS0_
FNDA:8,_ZNSt6vectorIiSaIiEE11_S_max_sizeERKS0_
FN:1773,_ZNSt6vectorIcSaIcEE11_S_max_sizeERKS0_
FNDA:41,_ZNSt6vectorIcSaIcEE11_S_max_sizeERKS0_
FN:1773,_ZNSt6vectorIS_IcSaIcEESaIS1_EE11_S_max_sizeERKS2_
FNDA:9,_ZNSt6vectorIS_IcSaIcEESaIS1_EE11_S_max_sizeERKS2_
FN:1789,_ZNSt6vectorIS_IcSaIcEESaIS1_EE15_M_erase_at_endEPS1_
FNDA:0,_ZNSt6vectorIS_IcSaIcEESaIS1_EE15_M_erase_at_endEPS1_
FN:1789,_ZNSt6vectorISt4pairIiiESaIS1_EE15_M_erase_at_endEPS1_
FNDA:118,_ZNSt6vectorISt4pairIiiESaIS1_EE15_M_erase_at_endEPS1_
FN:1789,_ZNSt6vectorIcSaIcEE15_M_erase_at_endEPc
FNDA:0,_ZNSt6vectorIcSaIcEE15_M_erase_at_endEPc
FN:1789,_ZNSt6vectorIS_IS_IcSaIcEESaIS1_EESaIS3_EE15_M_erase_at_endEPS3_
FNDA:118,_ZNSt6vectorIS_IS_IcSaIcEESaIS1_EESaIS3_EE15_M_erase_at_endEPS3_
FN:1812,_ZNSt6vectorIS_IcSaIcEESaIS1_EE14_M_move_assignEOS3_St17integral_constantIbLb1EE
FNDA:0,_ZNSt6vectorIS_IcSaIcEESaIS1_EE14_M_move_assignEOS3_St17integral_constantIbLb1EE
FN:1888,_ZSteqIcSaIcEEbRKSt6vectorIT_T0_ES6_
FNDA:9,_ZSteqIcSaIcEEbRKSt6vectorIT_T0_ES6_
FN:1888,_ZSteqISt6vectorIcSaIcEESaIS2_EEbRKS0_IT_T0_ES8_
FNDA:1,_ZSteqISt6vectorIcSaIcEESaIS2_EEbRKS0_IT_T0_ES8_
FN:1888,_ZSteqIiSaIiEEbRKSt6vectorIT_T0_ES6_
FNDA:1,_ZSteqIiSaIiEEbRKSt6vectorIT_T0_ES6_
FN:1912,_ZStneIiSaIiEEbRKSt6vectorIT_T0_ES6_
FNDA:1,_ZStneIiSaIiEEbRKSt6vectorIT_T0_ES6_
DA:94,9
DA:95,9
DA:96,9
DA:94,3911
DA:95,3911
DA:96,3911
DA:94,430
DA:95,430
DA:96,430
DA:94,10
DA:95,10
DA:96,10
DA:94,114
DA:95,114
DA:96,114
DA:99,0
DA:100,0
DA:101,0
DA:102,0
DA:99,2
DA:100,2
DA:101,2
DA:102,2
DA:106,0
DA:108,0
DA:109,0
DA:110,0
DA:111,0
DA:114,0
DA:118,0
DA:119,0
DA:120,0
DA:121,0
DA:122,0
DA:128,0
DA:130,0
DA:131,0
DA:128,0
DA:130,0
DA:131,0
DA:128,10
DA:130,10
DA:131,10
DA:128,11
DA:130,11
DA:131,11
DA:133,3911
DA:134,3911
DA:135,3911
DA:133,9
DA:134,9
DA:135,9
DA:133,103
DA:134,103
DA:135,103
DA:133,430
DA:134,430
DA:135,430
DA:140,0
DA:141,0
DA:142,0
DA:140,2
DA:141,2
DA:142,2
DA:273,7858
DA:274,7858
DA:273,20
DA:274,20
DA:273,866
DA:274,866
DA:273,164
DA:274,164
DA:273,333
DA:274,333
DA:277,54
DA:278,54
DA:277,1
DA:278,1
DA:277,3870
DA:278,3870
DA:277,119
DA:278,119
DA:277,421
DA:278,421
DA:281,0
DA:282,0
DA:285,0
DA:285,0
DA:285,10
DA:285,11
DA:290,4
DA:291,4
DA:290,36
DA:291,36
DA:290,2
DA:291,2
DA:300,3875
DA:301,3875
DA:302,3875
DA:300,7
DA:301,7
DA:302,7
DA:300,103
DA:301,103
DA:302,103
DA:300,426
DA:301,426
DA:302,426
DA:305,0
DA:305,2
DA:330,3911
DA:332,3911
DA:333,3911
DA:334,3911
DA:330,432
DA:332,432
DA:333,432
DA:334,432
DA:330,9
DA:332,9
DA:333,9
DA:334,9
DA:330,10
DA:332,10
DA:333,10
DA:334,10
DA:330,114
DA:332,114
DA:333,114
DA:334,114
DA:340,27
DA:343,27
DA:340,430
DA:343,430
DA:340,9
DA:343,9
DA:340,3911
DA:343,3911
DA:340,111
DA:343,111
DA:347,3911
DA:350,3911
DA:351,3911
DA:352,3911
DA:347,432
DA:350,432
DA:351,430
DA:352,432
DA:347,9
DA:350,9
DA:351,9
DA:352,9
DA:347,37
DA:350,37
DA:351,27
DA:352,37
DA:347,122
DA:350,122
DA:351,111
DA:352,122
DA:356,3875
DA:358,3875
DA:359,3875
DA:360,3875
DA:361,3875
DA:356,7
DA:358,7
DA:359,7
DA:360,7
DA:361,7
DA:356,103
DA:358,103
DA:359,103
DA:360,103
DA:361,103
DA:356,426
DA:358,426
DA:359,426
DA:360,426
DA:361,426
DA:428,0
DA:433,0
DA:428,54
DA:433,54
DA:428,0
DA:433,0
DA:428,16
DA:433,16
DA:441,0
DA:446,0
DA:441,54
DA:446,54
DA:441,0
DA:446,0
DA:441,16
DA:446,16
DA:450,0
DA:453,0
DA:450,54
DA:453,54
DA:450,0
DA:453,0
DA:450,16
DA:453,16
DA:462,0
DA:466,0
DA:462,54
DA:466,54
DA:462,0
DA:466,0
DA:462,16
DA:466,16
DA:484,0
DA:484,0
DA:484,10
DA:484,11
DA:494,0
DA:495,0
DA:507,6
DA:508,6
DA:509,6
DA:519,5
DA:521,5
DA:522,5
DA:519,5
DA:521,5
DA:522,5
DA:550,1
DA:552,1
DA:554,1
DA:555,1
DA:557,1
DA:558,1
DA:550,3870
DA:552,3870
DA:554,3870
DA:555,3870
DA:557,3870
DA:558,3870
DA:550,103
DA:552,103
DA:554,103
DA:555,103
DA:557,103
DA:558,103
DA:550,421
DA:552,421
DA:554,421
DA:555,421
DA:557,421
DA:558,421
DA:569,0
DA:569,2
DA:622,4
DA:624,4
DA:626,4
DA:628,4
DA:622,36
DA:624,36
DA:626,36
DA:628,36
DA:622,2
DA:624,2
DA:626,2
DA:628,2
DA:675,3911
DA:677,3911
DA:678,3911
DA:680,3911
DA:675,9
DA:677,9
DA:678,9
DA:680,9
DA:675,432
DA:677,432
DA:678,432
DA:680,432
DA:675,10
DA:677,10
DA:678,10
DA:680,10
DA:675,114
DA:677,114
DA:678,114
DA:680,114
DA:706,0
DA:708,0
DA:711,0
DA:712,0
DA:808,0
DA:809,0
DA:808,27
DA:809,27
DA:808,0
DA:809,0
DA:808,8
DA:809,8
DA:808,12
DA:809,12
DA:817,3
DA:818,3
DA:817,3888
DA:818,3888
DA:817,103
DA:818,103
DA:817,423
DA:818,423
DA:826,0
DA:827,0
DA:826,27
DA:827,27
DA:826,0
DA:827,0
DA:826,8
DA:827,8
DA:826,12
DA:827,12
DA:835,2
DA:836,2
DA:835,3879
DA:836,3879
DA:835,103
DA:836,103
DA:835,422
DA:836,422
DA:915,4
DA:916,4
DA:915,239
DA:916,239
DA:915,3978
DA:916,3978
DA:915,433
DA:916,433
DA:915,8043
DA:916,8043
DA:920,0
DA:921,0
DA:920,54
DA:921,54
DA:920,0
DA:921,0
DA:920,16
DA:921,16
DA:1040,182
DA:1043,182
DA:1040,48
DA:1043,48
DA:1040,15660
DA:1043,15660
DA:1040,31113
DA:1043,31113
DA:1040,31203
DA:1043,31203
DA:1058,0
DA:1061,0
DA:1058,1546
DA:1061,1546
DA:1058,1546
DA:1061,1546
DA:1184,0
DA:1186,0
DA:1189,0
DA:1191,0
DA:1195,0
DA:1196,0
DA:1184,107
DA:1186,107
DA:1189,99
DA:1191,99
DA:1195,8
DA:1196,107
DA:1200,0
DA:1201,0
DA:1200,0
DA:1201,0
DA:1200,1888
DA:1201,1888
DA:1495,0
DA:1496,0
DA:1495,0
DA:1496,0
DA:1495,118
DA:1496,118
DA:1495,118
DA:1496,118
DA:1574,4
DA:1577,4
DA:1578,4
DA:1579,4
DA:1580,4
DA:1581,4
DA:1582,4
DA:1584,4
DA:1585,4
DA:1574,36
DA:1577,36
DA:1578,36
DA:1579,36
DA:1580,36
DA:1581,36
DA:1582,36
DA:1584,36
DA:1585,36
DA:1574,2
DA:1577,2
DA:1578,2
DA:1579,2
DA:1580,2
DA:1581,2
DA:1582,2
DA:1584,2
DA:1585,2
DA:1590,5
DA:1592,5
DA:1593,5
DA:1594,5
DA:1595,5
DA:1590,5
DA:1592,5
DA:1593,5
DA:1594,5
DA:1595,5
DA:1600,6
DA:1602,6
DA:1603,6
DA:1604,6
DA:1605,6
DA:1753,0
DA:1755,0
DA:1756,0
DA:1758,0
DA:1759,0
DA:1753,27
DA:1755,27
DA:1756,0
DA:1758,27
DA:1759,27
DA:1753,0
DA:1755,0
DA:1756,0
DA:1758,0
DA:1759,0
DA:1753,8
DA:1755,8
DA:1756,0
DA:1758,8
DA:1759,8
DA:1764,9
DA:1766,9
DA:1767,0
DA:1769,9
DA:1764,41
DA:1766,41
DA:1767,0
DA:1769,41
DA:1764,8
DA:1766,8
DA:1767,0
DA:1769,8
DA:1773,54
DA:1778,54
DA:1780,54
DA:1781,54
DA:1773,16
DA:1778,16
DA:1780,16
DA:1781,16
DA:1773,9
DA:1778,9
DA:1780,9
DA:1781,9
DA:1773,41
DA:1778,41
DA:1780,41
DA:1781,41
DA:1773,8
DA:1778,8
DA:1780,8
DA:1781,8
DA:1789,0
DA:1791,0
DA:1793,0
DA:1794,0
DA:1795,0
DA:1798,0
DA:1789,0
DA:1791,0
DA:1793,0
DA:1794,0
DA:1795,0
DA:1798,0
DA:1789,118
DA:1791,118
DA:1793,100
DA:1794,100
DA:1795,100
DA:1798,118
DA:1789,118
DA:1791,118
DA:1793,100
DA:1794,100
DA:1795,100
DA:1798,118
DA:1812,0
DA:1814,0
DA:1815,0
DA:1816,0
DA:1817,0
DA:1818,0
DA:1888,9
DA:1889,9
DA:1890,9
DA:1888,1
DA:1889,1
DA:1890,1
DA:1888,1
DA:1889,1
DA:1890,1
DA:1912,1
DA:1913,1
end_of_record
SF:/usr/include/c++/9/initializer_list
FN:71,_ZNKSt16initializer_listISt6vectorIcSaIcEEE4sizeEv
FNDA:4,_ZNKSt16initializer_listISt6vectorIcSaIcEEE4sizeEv
FN:71,_ZNKSt16initializer_listIcE4sizeEv
FNDA:36,_ZNKSt16initializer_listIcE4sizeEv
FN:71,_ZNKSt16initializer_listIiE4sizeEv
FNDA:2,_ZNKSt16initializer_listIiE4sizeEv
FN:75,_ZNKSt16initializer_listISt6vectorIcSaIcEEE5beginEv
FNDA:8,_ZNKSt16initializer_listISt6vectorIcSaIcEEE5beginEv
FN:75,_ZNKSt16initializer_listIcE5beginEv
FNDA:72,_ZNKSt16initializer_listIcE5beginEv
FN:75,_ZNKSt16initializer_listIiE5beginEv
FNDA:4,_ZNKSt16initializer_listIiE5beginEv
FN:79,_ZNKSt16initializer_listISt6vectorIcSaIcEEE3endEv
FNDA:4,_ZNKSt16initializer_listISt6vectorIcSaIcEEE3endEv
FN:79,_ZNKSt16initializer_listIcE3endEv
FNDA:36,_ZNKSt16initializer_listIcE3endEv
FN:79,_ZNKSt16initializer_listIiE3endEv
FNDA:2,_ZNKSt16initializer_listIiE3endEv
DA:71,4
DA:71,36
DA:71,2
DA:75,8
DA:75,72
DA:75,4
DA:79,4
DA:79,36
DA:79,2
end_of_record
SF:/usr/include/c++/9/bits/move.h
FN:47,_ZSt11__addressofISt6vectorIcSaIcEEEPT_RS3_
FNDA:7740,_ZSt11__addressofISt6vectorIcSaIcEEEPT_RS3_
FN:47,_ZSt11__addressofISt6vectorIS0_IcSaIcEESaIS2_EEEPT_RS5_
FNDA:327,_ZSt11__addressofISt6vectorIS0_IcSaIcEESaIS2_EEEPT_RS5_
FN:47,_ZSt11__addressofISt4pairIiiEEPT_RS2_
FNDA:660,_ZSt11__addressofISt4pairIiiEEPT_RS2_
FN:74,_ZSt7forwardIRKSt6vectorIcSaIcEEEOT_RNSt16remove_referenceIS5_E4typeE
FNDA:3870,_ZSt7forwardIRKSt6vectorIcSaIcEEEOT_RNSt16remove_referenceIS5_E4typeE
FN:74,_ZSt7forwardImEOT_RNSt16remove_referenceIS0_E4typeE
FNDA:96,_ZSt7forwardImEOT_RNSt16remove_referenceIS0_E4typeE
FN:74,_ZSt7forwardISt6vectorIcSaIcEEEOT_RNSt16remove_referenceIS3_E4typeE
FNDA:0,_ZSt7forwardISt6vectorIcSaIcEEEOT_RNSt16remove_referenceIS3_E4typeE
FN:74,_ZSt7forwardIRKcEOT_RNSt16remove_referenceIS2_E4typeE
FNDA:0,_ZSt7forwardIRKcEOT_RNSt16remove_referenceIS2_E4typeE
FN:74,_ZSt7forwardISt6vectorIS0_IcSaIcEESaIS2_EEEOT_RNSt16remove_referenceIS5_E4typeE
FNDA:4,_ZSt7forwardISt6vectorIS0_IcSaIcEESaIS2_EEEOT_RNSt16remove_referenceIS5_E4typeE
FN:74,_ZSt7forwardISt4pairIiiEEOT_RNSt16remove_referenceIS2_E4typeE
FNDA:6131,_ZSt7forwardISt4pairIiiEEOT_RNSt16remove_referenceIS2_E4typeE
FN:74,_ZSt7forwardIRKSt6vectorIS0_IcSaIcEESaIS2_EEEOT_RNSt16remove_referenceIS7_E4typeE
FNDA:329,_ZSt7forwardIRKSt6vectorIS0_IcSaIcEESaIS2_EEEOT_RNSt16remove_referenceIS7_E4typeE
FN:74,_ZSt7forwardIRiEOT_RNSt16remove_referenceIS1_E4typeE
FNDA:3776,_ZSt7forwardIRiEOT_RNSt16remove_referenceIS1_E4typeE
FN:99,_ZSt4moveIRiEONSt16remove_referenceIT_E4typeEOS2_
FNDA:144,_ZSt4moveIRiEONSt16remove_referenceIT_E4typeEOS2_
FN:99,_ZSt4moveIRSaIcEEONSt16remove_referenceIT_E4typeEOS3_
FNDA:0,_ZSt4moveIRSaIcEEONSt16remove_referenceIT_E4typeEOS3_
FN:99,_ZSt4moveIRPNSt7__cxx1118basic_stringstreamIcSt11char_traitsIcESaIcEEEEONSt16remove_referenceIT_E4typeEOS9_
FNDA:0,_ZSt4moveIRPNSt7__cxx1118basic_stringstreamIcSt11char_traitsIcESaIcEEEEONSt16remove_referenceIT_E4typeEOS9_
FN:99,_ZSt4moveIRPNSt7__cxx1112basic_stringIcSt11char_traitsIcESaIcEEEEONSt16remove_referenceIT_E4typeEOS9_
FNDA:0,_ZSt4moveIRPNSt7__cxx1112basic_stringIcSt11char_traitsIcESaIcEEEEONSt16remove_referenceIT_E4typeEOS9_
FN:99,_ZSt4moveIRSt4pairIiiEEONSt16remove_referenceIT_E4typeEOS4_
FNDA:2108,_ZSt4moveIRSt4pairIiiEEONSt16remove_referenceIT_E4typeEOS4_
FN:99,_ZSt4moveIRNSt12_Vector_baseISt6vectorIcSaIcEESaIS3_EE12_Vector_implEEONSt16remove_referenceIT_E4typeEOS9_
FNDA:4,_ZSt4moveIRNSt12_Vector_baseISt6vectorIcSaIcEESaIS3_EE12_Vector_implEEONSt16remove_referenceIT_E4typeEOS9_
FN:99,_ZSt4moveIRSt6vectorIS0_IcSaIcEESaIS2_EEEONSt16remove_referenceIT_E4typeEOS7_
FNDA:2,_ZSt4moveIRSt6vectorIS0_IcSaIcEESaIS2_EEEONSt16remove_referenceIT_E4typeEOS7_
FN:99,_ZSt4moveIRSt6vectorIcSaIcEEEONSt16remove_referenceIT_E4typeEOS5_
FNDA:0,_ZSt4moveIRSt6vectorIcSaIcEEEONSt16remove_referenceIT_E4typeEOS5_
FN:99,_ZSt4moveIRSaISt6vectorIcSaIcEEEEONSt16remove_referenceIT_E4typeEOS6_
FNDA:0,_ZSt4moveIRSaISt6vectorIcSaIcEEEEONSt16remove_referenceIT_E4typeEOS6_
FN:99,_ZSt4moveIRNSt12_Vector_baseIcSaIcEE12_Vector_implEEONSt16remove_referenceIT_E4typeEOS6_
FNDA:0,_ZSt4moveIRNSt12_Vector_baseIcSaIcEE12_Vector_implEEONSt16remove_referenceIT_E4typeEOS6_
FN:182,_ZSt4swapIPNSt7__cxx1112basic_stringIcSt11char_traitsIcESaIcEEEENSt9enable_ifIXsrSt6__and_IJSt6__not_ISt15__is_tuple_likeIT_EESt21is_move_constructibleISB_ESt18is_move_assignableISB_EEE5valueEvE4typeERSB_SL_
FNDA:0,_ZSt4swapIPNSt7__cxx1112basic_stringIcSt11char_traitsIcESaIcEEEENSt9enable_ifIXsrSt6__and_IJSt6__not_ISt15__is_tuple_likeIT_EESt21is_move_constructibleISB_ESt18is_move_assignableISB_EEE5valueEvE4typeERSB_SL_
FN:182,_ZSt4swapIiENSt9enable_ifIXsrSt6__and_IJSt6__not_ISt15__is_tuple_likeIT_EESt21is_move_constructibleIS4_ESt18is_move_assignableIS4_EEE5valueEvE4typeERS4_SE_
FNDA:48,_ZSt4swapIiENSt9enable_ifIXsrSt6__and_IJSt6__not_ISt15__is_tuple_likeIT_EESt21is_move_constructibleIS4_ESt18is_move_assignableIS4_EEE5valueEvE4typeERS4_SE_
DA:47,660
DA:48,660
DA:47,7740
DA:48,7740
DA:47,327
DA:48,327
DA:74,3870
DA:75,3870
DA:74,96
DA:75,96
DA:74,0
DA:75,0
DA:74,0
DA:75,0
DA:74,4
DA:75,4
DA:74,6131
DA:75,6131
DA:74,329
DA:75,329
DA:74,3776
DA:75,3776
DA:99,0
DA:100,0
DA:99,0
DA:100,0
DA:99,144
DA:100,144
DA:99,0
DA:100,0
DA:99,2
DA:100,2
DA:99,4
DA:100,4
DA:99,2108
DA:100,2108
DA:99,0
DA:100,0
DA:99,0
DA:100,0
DA:99,0
DA:100,0
DA:182,48
DA:193,48
DA:194,48
DA:195,48
DA:196,48
DA:182,0
DA:193,0
DA:194,0
DA:195,0
DA:196,0
end_of_record
SF:/home/juruo/software/sudoku_functions.h
FN:35,_ZN12SudokuPlayerC2Ev
FNDA:10,_ZN12SudokuPlayerC2Ev
FN:40,_ZN12SudokuPlayer9initStateEv
FNDA:118,_ZN12SudokuPlayer9initStateEv
FN:49,_ZN12SudokuPlayer9addResultERSt6vectorIS0_IcSaIcEESaIS2_EE
FNDA:106,_ZN12SudokuPlayer9addResultERSt6vectorIS0_IcSaIcEESaIS2_EE
FN:56,_ZN12SudokuPlayer4flipEiii
FNDA:22268,_ZN12SudokuPlayer4flipEiii
FN:63,_ZN12SudokuPlayer11solveSudokuESt6vectorIS0_IcSaIcEESaIS2_EE
FNDA:101,_ZN12SudokuPlayer11solveSudokuESt6vectorIS0_IcSaIcEESaIS2_EE
FN:85,_ZN12SudokuPlayer3DFSERSt6vectorIS0_IcSaIcEESaIS2_EEi
FNDA:7935,_ZN12SudokuPlayer3DFSERSt6vectorIS0_IcSaIcEESaIS2_EEi
FN:108,_ZN12SudokuPlayer9getResultEv
FNDA:1,_ZN12SudokuPlayer9getResultEv
FN:113,_ZN12SudokuPlayer10checkBoardERKSt6vectorIS0_IcSaIcEESaIS2_EE
FNDA:7,_ZN12SudokuPlayer10checkBoardERKSt6vectorIS0_IcSaIcEESaIS2_EE
FN:151,_ZN12SudokuPlayer8getRand9Ev
FNDA:6,_ZN12SudokuPlayer8getRand9Ev
FN:169,_ZN12SudokuPlayer13generateBoardEi
FNDA:3,_ZN12SudokuPlayer13generateBoardEi
FN:215,_ZN12SudokuPlayer10copySquareERSt6vectorIS0_IcSaIcEESaIS2_EEiib
FNDA:14,_ZN12SudokuPlayer10copySquareERSt6vectorIS0_IcSaIcEESaIS2_EEiib
FN:254,_Z8readFileNSt7__cxx1112basic_stringIcSt11char_traitsIcESaIcEEE
FNDA:0,_Z8readFileNSt7__cxx1112basic_stringIcSt11char_traitsIcESaIcEEE
FN:285,_Z9writeFileSt6vectorIS_IS_IcSaIcEESaIS1_EESaIS3_EERSt14basic_ofstreamIcSt11char_traitsIcEE
FNDA:1,_Z9writeFileSt6vectorIS_IS_IcSaIcEESaIS1_EESaIS3_EERSt14basic_ofstreamIcSt11char_traitsIcEE
FN:394,_Z12generateGameiiSt6vectorIiSaIiEERSt14basic_ofstreamIcSt11char_traitsIcEER12SudokuPlayer
FNDA:1,_Z12generateGameiiSt6vectorIiSaIiEERSt14basic_ofstreamIcSt11char_traitsIcEER12SudokuPlayer
FN:414,_Z13generateGameUiiRKSt6vectorIiSaIiEERSt14basic_ofstreamIcSt11char_traitsIcEER12SudokuPlayer
FNDA:0,_Z13generateGameUiiRKSt6vectorIiSaIiEERSt14basic_ofstreamIcSt11char_traitsIcEER12SudokuPlayer
DA:35,10
DA:36,10
DA:37,10
DA:38,10
DA:40,118
DA:42,118
DA:43,118
DA:44,118
DA:45,118
DA:46,118
DA:47,118
DA:49,106
DA:51,212
DA:52,106
DA:53,106
DA:56,22268
DA:58,22268
DA:59,22268
DA:60,22268
DA:61,22268
DA:63,101
DA:65,101
DA:66,1010
DA:68,9090
DA:70,8181
DA:72,1888
DA:76,6293
DA:77,6293
DA:81,101
DA:82,101
DA:85,7935
DA:87,7935
DA:89,105
DA:90,105
DA:92,7830
DA:93,78300
DA:96,70470
DA:98,62636
DA:100,7834
DA:101,7834
DA:102,7834
DA:103,7834
DA:104,7834
DA:108,1
DA:110,1
DA:113,7
DA:115,7
DA:116,69
DA:118,627
DA:121,565
DA:123,308
DA:128,308
DA:130,1
DA:132,307
DA:136,6
DA:151,6
DA:158,6
DA:159,6
DA:161,6
DA:162,6
DA:166,6
DA:167,12
DA:169,3
DA:171,6
DA:172,6
DA:173,12
DA:175,9
DA:176,9
DA:177,9
DA:179,3
DA:180,3
DA:181,3
DA:182,3
DA:184,138
DA:186,135
DA:187,135
DA:188,135
DA:189,35
DA:190,100
DA:191,100
DA:193,100
DA:194,100
DA:196,96
DA:200,4
DA:205,3
DA:207,0
DA:210,6
DA:215,14
DA:218,14
DA:219,14
DA:220,14
DA:221,14
DA:223,6
DA:224,6
DA:225,6
DA:226,6
DA:227,6
DA:228,6
DA:232,56
DA:234,42
DA:235,126
DA:237,336
DA:239,252
DA:241,90
DA:245,162
DA:250,14
DA:254,0
DA:256,0
DA:257,0
DA:258,0
DA:260,0
DA:261,0
DA:262,0
DA:264,0
DA:265,0
DA:267,0
DA:268,0
DA:269,0
DA:271,0
DA:273,0
DA:275,0
DA:278,0
DA:279,0
DA:281,0
DA:282,0
DA:285,1
DA:287,2
DA:289,10
DA:291,90
DA:293,81
DA:295,9
DA:297,1
DA:299,1
DA:394,1
DA:396,2
DA:398,1
DA:399,1
DA:401,0
DA:405,1
DA:407,2
DA:408,1
DA:409,1
DA:410,1
DA:412,1
DA:413,1
DA:414,0
DA:416,0
DA:418,0
DA:419,0
DA:421,0
DA:425,0
DA:428,0
DA:429,0
DA:433,0
DA:434,0
DA:435,0
DA:437,0
DA:438,0
DA:440,0
DA:443,0
DA:445,0
DA:448,0
DA:449,0
end_of_record
SF:/usr/include/gtest/gtest-message.h
FN:112,_ZN7testing7MessagelsIA5_cEERS0_RKT_
FNDA:0,_ZN7testing7MessagelsIA5_cEERS0_RKT_
FN:112,_ZN7testing7MessagelsINSt7__cxx1112basic_stringIcSt11char_traitsIcESaIcEEEEERS0_RKT_
FNDA:0,_ZN7testing7MessagelsINSt7__cxx1112basic_stringIcSt11char_traitsIcESaIcEEEEERS0_RKT_
FN:112,_ZN7testing7MessagelsIA3_cEERS0_RKT_
FNDA:0,_ZN7testing7MessagelsIA3_cEERS0_RKT_
FN:112,_ZN7testing7MessagelsIA12_cEERS0_RKT_
FNDA:0,_ZN7testing7MessagelsIA12_cEERS0_RKT_
FN:146,_ZN7testing7MessagelsIKcEERS0_RKPT_
FNDA:0,_ZN7testing7MessagelsIKcEERS0_RKPT_
DA:112,0
DA:128,0
DA:129,0
DA:112,0
DA:128,0
DA:129,0
DA:112,0
DA:128,0
DA:129,0
DA:112,0
DA:128,0
DA:129,0
DA:146,0
DA:147,0
DA:148,0
DA:150,0
DA:152,0
end_of_record
SF:/usr/include/c++/9/bits/basic_string.h
FN:247,_ZNSt7__cxx1112basic_stringIcSt11char_traitsIcESaIcEE16_M_construct_auxIPcEEvT_S7_St12__false_type
FNDA:0,_ZNSt7__cxx1112basic_stringIcSt11char_traitsIcESaIcEE16_M_construct_auxIPcEEvT_S7_St12__false_type
FN:247,_ZNSt7__cxx1112basic_stringIcSt11char_traitsIcESaIcEE16_M_construct_auxIPKcEEvT_S8_St12__false_type
FNDA:0,_ZNSt7__cxx1112basic_stringIcSt11char_traitsIcESaIcEE16_M_construct_auxIPKcEEvT_S8_St12__false_type
FN:267,_ZNSt7__cxx1112basic_stringIcSt11char_traitsIcESaIcEE12_M_constructIPcEEvT_S7_
FNDA:0,_ZNSt7__cxx1112basic_stringIcSt11char_traitsIcESaIcEE12_M_constructIPcEEvT_S7_
FN:267,_ZNSt7__cxx1112basic_stringIcSt11char_traitsIcESaIcEE12_M_constructIPKcEEvT_S8_
FNDA:0,_ZNSt7__cxx1112basic_stringIcSt11char_traitsIcESaIcEE12_M_constructIPKcEEvT_S8_
FN:6178,_ZSteqIcSt11char_traitsIcESaIcEEbRKNSt7__cxx1112basic_stringIT_T0_T1_EEPKS5_
FNDA:10,_ZSteqIcSt11char_traitsIcESaIcEEbRKNSt7__cxx1112basic_stringIT_T0_T1_EEPKS5_
FN:6506,_ZNSt7__cxx114stoiERKNS_12basic_stringIcSt11char_traitsIcESaIcEEEPmi
FNDA:0,_ZNSt7__cxx114stoiERKNS_12basic_stringIcSt11char_traitsIcESaIcEEEPmi
DA:247,0
DA:251,0
DA:252,0
DA:247,0
DA:251,0
DA:252,0
DA:267,0
DA:270,0
DA:271,0
DA:267,0
DA:270,0
DA:271,0
DA:6178,10
DA:6180,10
DA:6506,0
DA:6507,0
DA:6508,0
end_of_record
SF:/usr/include/c++/9/ext/string_conversions.h
FN:54,_ZN9__gnu_cxx6__stoaIlicJiEEET0_PFT_PKT1_PPS3_DpT2_EPKcS5_PmS9_
FNDA:0,_ZN9__gnu_cxx6__stoaIlicJiEEET0_PFT_PKT1_PPS3_DpT2_EPKcS5_PmS9_
FN:63,_ZZN9__gnu_cxx6__stoaIlicJiEEET0_PFT_PKT1_PPS3_DpT2_EPKcS5_PmS9_EN11_Save_errnoC2Ev
FNDA:0,_ZZN9__gnu_cxx6__stoaIlicJiEEET0_PFT_PKT1_PPS3_DpT2_EPKcS5_PmS9_EN11_Save_errnoC2Ev
FN:64,_ZZN9__gnu_cxx6__stoaIlicJiEEET0_PFT_PKT1_PPS3_DpT2_EPKcS5_PmS9_EN11_Save_errnoD2Ev
FNDA:0,_ZZN9__gnu_cxx6__stoaIlicJiEEET0_PFT_PKT1_PPS3_DpT2_EPKcS5_PmS9_EN11_Save_errnoD2Ev
FN:73,_ZZN9__gnu_cxx6__stoaIlicJiEEET0_PFT_PKT1_PPS3_DpT2_EPKcS5_PmS9_EN10_Range_chk6_S_chkElSt17integral_constantIbLb1EE
FNDA:0,_ZZN9__gnu_cxx6__stoaIlicJiEEET0_PFT_PKT1_PPS3_DpT2_EPKcS5_PmS9_EN10_Range_chk6_S_chkElSt17integral_constantIbLb1EE
DA:54,0
DA:63,0
DA:64,0
DA:66,0
DA:73,0
DA:76,0
DA:80,0
DA:82,0
DA:83,0
DA:84,0
DA:85,0
DA:86,0
DA:88,0
DA:90,0
DA:91,0
DA:93,0
end_of_record
SF:/usr/include/c++/9/bits/stl_iterator_base_funcs.h
FN:98,_ZSt10__distanceIPcENSt15iterator_traitsIT_E15difference_typeES2_S2_St26random_access_iterator_tag
FNDA:0,_ZSt10__distanceIPcENSt15iterator_traitsIT_E15difference_typeES2_S2_St26random_access_iterator_tag
FN:98,_ZSt10__distanceIPKSt6vectorIcSaIcEEENSt15iterator_traitsIT_E15difference_typeES6_S6_St26random_access_iterator_tag
FNDA:4,_ZSt10__distanceIPKSt6vectorIcSaIcEEENSt15iterator_traitsIT_E15difference_typeES6_S6_St26random_access_iterator_tag
FN:98,_ZSt10__distanceIPKcENSt15iterator_traitsIT_E15difference_typeES3_S3_St26random_access_iterator_tag
FNDA:36,_ZSt10__distanceIPKcENSt15iterator_traitsIT_E15difference_typeES3_S3_St26random_access_iterator_tag
FN:98,_ZSt10__distanceIPKiENSt15iterator_traitsIT_E15difference_typeES3_S3_St26random_access_iterator_tag
FNDA:2,_ZSt10__distanceIPKiENSt15iterator_traitsIT_E15difference_typeES3_S3_St26random_access_iterator_tag
FN:138,_ZSt8distanceIPcENSt15iterator_traitsIT_E15difference_typeES2_S2_
FNDA:0,_ZSt8distanceIPcENSt15iterator_traitsIT_E15difference_typeES2_S2_
FN:138,_ZSt8distanceIPKSt6vectorIcSaIcEEENSt15iterator_traitsIT_E15difference_typeES6_S6_
FNDA:4,_ZSt8distanceIPKSt6vectorIcSaIcEEENSt15iterator_traitsIT_E15difference_typeES6_S6_
FN:138,_ZSt8distanceIPKcENSt15iterator_traitsIT_E15difference_typeES3_S3_
FNDA:36,_ZSt8distanceIPKcENSt15iterator_traitsIT_E15difference_typeES3_S3_
FN:138,_ZSt8distanceIPKiENSt15iterator_traitsIT_E15difference_typeES3_S3_
FNDA:2,_ZSt8distanceIPKiENSt15iterator_traitsIT_E15difference_typeES3_S3_
DA:98,0
DA:104,0
DA:98,4
DA:104,4
DA:98,36
DA:104,36
DA:98,2
DA:104,2
DA:138,0
DA:141,0
DA:142,0
DA:138,4
DA:141,4
DA:142,8
DA:138,36
DA:141,36
DA:142,72
DA:138,2
DA:141,2
DA:142,4
end_of_record
SF:/usr/include/c++/9/bits/stl_algobase.h
FN:123,_ZSt9iter_swapIN9__gnu_cxx17__normal_iteratorIPiSt6vectorIiSaIiEEEES6_EvT_T0_
FNDA:48,_ZSt9iter_swapIN9__gnu_cxx17__normal_iteratorIPiSt6vectorIiSaIiEEEES6_EvT_T0_
FN:198,_ZSt3minImERKT_S2_S2_
FNDA:128,_ZSt3minImERKT_S2_S2_
FN:222,_ZSt3maxImERKT_S2_S2_
FNDA:35,_ZSt3maxImERKT_S2_S2_
FN:280,_ZSt12__niter_baseIPiET_S1_
FNDA:9,_ZSt12__niter_baseIPiET_S1_
FN:280,_ZSt12__niter_baseIPSt6vectorIS0_IcSaIcEESaIS2_EEET_S6_
FNDA:48,_ZSt12__niter_baseIPSt6vectorIS0_IcSaIcEESaIS2_EEET_S6_
FN:280,_ZSt12__niter_baseIPcET_S1_
FNDA:3911,_ZSt12__niter_baseIPcET_S1_
FN:280,_ZSt12__niter_baseIPSt4pairIiiEET_S3_
FNDA:162,_ZSt12__niter_baseIPSt4pairIiiEET_S3_
FN:280,_ZSt12__niter_baseIPSt6vectorIcSaIcEEET_S4_
FNDA:0,_ZSt12__niter_baseIPSt6vectorIcSaIcEEET_S4_
FN:280,_ZSt12__niter_baseIPKcET_S2_
FNDA:72,_ZSt12__niter_baseIPKcET_S2_
FN:280,_ZSt12__niter_baseIPKiET_S2_
FNDA:4,_ZSt12__niter_baseIPKiET_S2_
FN:295,_ZSt12__niter_wrapIPcET_RKS1_S1_
FNDA:3911,_ZSt12__niter_wrapIPcET_RKS1_S1_
FN:295,_ZSt12__niter_wrapIPiET_RKS1_S1_
FNDA:9,_ZSt12__niter_wrapIPiET_RKS1_S1_
FN:375,_ZNSt11__copy_moveILb0ELb1ESt26random_access_iterator_tagE8__copy_mIcEEPT_PKS3_S6_S4_
FNDA:3906,_ZNSt11__copy_moveILb0ELb1ESt26random_access_iterator_tagE8__copy_mIcEEPT_PKS3_S6_S4_
FN:375,_ZNSt11__copy_moveILb1ELb1ESt26random_access_iterator_tagE8__copy_mIcEEPT_PKS3_S6_S4_
FNDA:0,_ZNSt11__copy_moveILb1ELb1ESt26random_access_iterator_tagE8__copy_mIcEEPT_PKS3_S6_S4_
FN:375,_ZNSt11__copy_moveILb0ELb1ESt26random_access_iterator_tagE8__copy_mIiEEPT_PKS3_S6_S4_
FNDA:3,_ZNSt11__copy_moveILb0ELb1ESt26random_access_iterator_tagE8__copy_mIiEEPT_PKS3_S6_S4_
FN:393,_ZSt13__copy_move_aILb1EPcS0_ET1_T0_S2_S1_
FNDA:0,_ZSt13__copy_move_aILb1EPcS0_ET1_T0_S2_S1_
FN:393,_ZSt13__copy_move_aILb0EPKiPiET1_T0_S4_S3_
FNDA:3,_ZSt13__copy_move_aILb0EPKiPiET1_T0_S4_S3_
FN:393,_ZSt13__copy_move_aILb0EPKcPcET1_T0_S4_S3_
FNDA:3906,_ZSt13__copy_move_aILb0EPKcPcET1_T0_S4_S3_
FN:438,_ZSt14__copy_move_a2ILb1EPcS0_ET1_T0_S2_S1_
FNDA:0,_ZSt14__copy_move_a2ILb1EPcS0_ET1_T0_S2_S1_
FN:438,_ZSt14__copy_move_a2ILb0EN9__gnu_cxx17__normal_iteratorIPKcSt6vectorIcSaIcEEEEPcET1_T0_SA_S9_
FNDA:3870,_ZSt14__copy_move_a2ILb0EN9__gnu_cxx17__normal_iteratorIPKcSt6vectorIcSaIcEEEEPcET1_T0_SA_S9_
FN:438,_ZSt14__copy_move_a2ILb0EN9__gnu_cxx17__normal_iteratorIPKiSt6vectorIiSaIiEEEEPiET1_T0_SA_S9_
FNDA:1,_ZSt14__copy_move_a2ILb0EN9__gnu_cxx17__normal_iteratorIPKiSt6vectorIiSaIiEEEEPiET1_T0_SA_S9_
FN:438,_ZSt14__copy_move_a2ILb0EPKcPcET1_T0_S4_S3_
FNDA:36,_ZSt14__copy_move_a2ILb0EPKcPcET1_T0_S4_S3_
FN:438,_ZSt14__copy_move_a2ILb0EPKiPiET1_T0_S4_S3_
FNDA:2,_ZSt14__copy_move_a2ILb0EPKiPiET1_T0_S4_S3_
FN:465,_ZSt4copyIN9__gnu_cxx17__normal_iteratorIPKcSt6vectorIcSaIcEEEEPcET0_T_SA_S9_
FNDA:3870,_ZSt4copyIN9__gnu_cxx17__normal_iteratorIPKcSt6vectorIcSaIcEEEEPcET0_T_SA_S9_
FN:465,_ZSt4copyIPKcPcET0_T_S4_S3_
FNDA:36,_ZSt4copyIPKcPcET0_T_S4_S3_
FN:465,_ZSt4copyIN9__gnu_cxx17__normal_iteratorIPKiSt6vectorIiSaIiEEEEPiET0_T_SA_S9_
FNDA:1,_ZSt4copyIN9__gnu_cxx17__normal_iteratorIPKiSt6vectorIiSaIiEEEEPiET0_T_SA_S9_
FN:465,_ZSt4copyIPKiPiET0_T_S4_S3_
FNDA:2,_ZSt4copyIPKiPiET0_T_S4_S3_
FN:465,_ZSt4copyISt13move_iteratorIPcES1_ET0_T_S4_S3_
FNDA:0,_ZSt4copyISt13move_iteratorIPcES1_ET0_T_S4_S3_
FN:721,_ZSt8__fill_aIcEN9__gnu_cxx11__enable_ifIXsrSt9__is_byteIT_E7__valueEvE6__typeEPS3_S7_RKS3_
FNDA:5,_ZSt8__fill_aIcEN9__gnu_cxx11__enable_ifIXsrSt9__is_byteIT_E7__valueEvE6__typeEPS3_S7_RKS3_
FN:767,_ZSt10__fill_n_aIPimiEN9__gnu_cxx11__enable_ifIXsrSt11__is_scalarIT1_E7__valueET_E6__typeES6_T0_RKS4_
FNDA:6,_ZSt10__fill_n_aIPimiEN9__gnu_cxx11__enable_ifIXsrSt11__is_scalarIT1_E7__valueET_E6__typeES6_T0_RKS4_
FN:779,_ZSt10__fill_n_aImcEN9__gnu_cxx11__enable_ifIXsrSt9__is_byteIT0_E7__valueEPS3_E6__typeES5_T_RKS3_
FNDA:5,_ZSt10__fill_n_aImcEN9__gnu_cxx11__enable_ifIXsrSt9__is_byteIT0_E7__valueEPS3_E6__typeES5_T_RKS3_
FN:802,_ZSt6fill_nIPcmcET_S1_T0_RKT1_
FNDA:5,_ZSt6fill_nIPcmcET_S1_T0_RKT1_
FN:802,_ZSt6fill_nIPimiET_S1_T0_RKT1_
FNDA:6,_ZSt6fill_nIPimiET_S1_T0_RKT1_
FN:817,_ZNSt7__equalILb0EE5equalIPKSt6vectorIcSaIcEES6_EEbT_S7_T0_
FNDA:1,_ZNSt7__equalILb0EE5equalIPKSt6vectorIcSaIcEES6_EEbT_S7_T0_
FN:831,_ZNSt7__equalILb1EE5equalIiEEbPKT_S4_S4_
FNDA:1,_ZNSt7__equalILb1EE5equalIiEEbPKT_S4_S4_
FN:831,_ZNSt7__equalILb1EE5equalIcEEbPKT_S4_S4_
FNDA:9,_ZNSt7__equalILb1EE5equalIcEEbPKT_S4_S4_
FN:841,_ZSt11__equal_auxIPKiS1_EbT_S2_T0_
FNDA:1,_ZSt11__equal_auxIPKiS1_EbT_S2_T0_
FN:841,_ZSt11__equal_auxIPKSt6vectorIcSaIcEES4_EbT_S5_T0_
FNDA:1,_ZSt11__equal_auxIPKSt6vectorIcSaIcEES4_EbT_S5_T0_
FN:841,_ZSt11__equal_auxIPKcS1_EbT_S2_T0_
FNDA:9,_ZSt11__equal_auxIPKcS1_EbT_S2_T0_
FN:1059,_ZSt5equalIN9__gnu_cxx17__normal_iteratorIPKcSt6vectorIcSaIcEEEES7_EbT_S8_T0_
FNDA:9,_ZSt5equalIN9__gnu_cxx17__normal_iteratorIPKcSt6vectorIcSaIcEEEES7_EbT_S8_T0_
FN:1059,_ZSt5equalIN9__gnu_cxx17__normal_iteratorIPKiSt6vectorIiSaIiEEEES7_EbT_S8_T0_
FNDA:1,_ZSt5equalIN9__gnu_cxx17__normal_iteratorIPKiSt6vectorIiSaIiEEEES7_EbT_S8_T0_
FN:1059,_ZSt5equalIN9__gnu_cxx17__normal_iteratorIPKSt6vectorIcSaIcEES2_IS4_SaIS4_EEEES9_EbT_SA_T0_
FNDA:1,_ZSt5equalIN9__gnu_cxx17__normal_iteratorIPKSt6vectorIcSaIcEES2_IS4_SaIS4_EEEES9_EbT_SA_T0_
DA:123,48
DA:151,48
DA:153,48
DA:198,128
DA:203,128
DA:204,0
DA:205,128
DA:222,35
DA:227,35
DA:228,10
DA:229,25
DA:280,72
DA:282,72
DA:280,4
DA:282,4
DA:280,0
DA:282,0
DA:280,9
DA:282,9
DA:280,162
DA:282,162
DA:280,3911
DA:282,3911
DA:280,48
DA:282,48
DA:295,3911
DA:296,3911
DA:295,9
DA:296,9
DA:375,0
DA:384,0
DA:385,0
DA:386,0
DA:387,0
DA:375,3
DA:384,3
DA:385,3
DA:386,3
DA:387,3
DA:375,3906
DA:384,3906
DA:385,3906
DA:386,3906
DA:387,3906
DA:393,0
DA:398,0
DA:404,0
DA:393,3
DA:398,3
DA:404,3
DA:393,3906
DA:398,3906
DA:404,3906
DA:438,0
DA:440,0
DA:443,0
DA:438,36
DA:440,36
DA:443,36
DA:438,2
DA:440,2
DA:443,2
DA:438,1
DA:440,1
DA:443,1
DA:438,3870
DA:440,3870
DA:443,3870
DA:465,0
DA:474,0
DA:465,36
DA:474,36
DA:465,2
DA:474,2
DA:465,1
DA:474,1
DA:465,3870
DA:474,3870
DA:721,5
DA:723,5
DA:724,5
DA:725,5
DA:726,5
DA:767,6
DA:769,6
DA:770,6
DA:771,60
DA:772,54
DA:773,6
DA:779,5
DA:781,5
DA:782,5
DA:802,5
DA:808,5
DA:809,5
DA:802,6
DA:808,6
DA:809,6
DA:817,10
DA:819,10
DA:820,9
DA:821,0
DA:822,1
DA:831,9
DA:833,9
DA:834,9
DA:835,0
DA:831,1
DA:833,1
DA:834,1
DA:835,0
DA:841,9
DA:845,9
DA:851,9
DA:841,1
DA:845,1
DA:851,1
DA:841,1
DA:845,1
DA:851,1
DA:1059,9
DA:1069,9
DA:1071,9
DA:1059,1
DA:1069,1
DA:1071,1
DA:1059,1
DA:1069,1
DA:1071,1
end_of_record
SF:/usr/include/c++/9/bits/random.h
FN:135,_ZNSt8__detail4_ModImLm624ELm1ELm0ELb1ELb1EE6__calcEm
FNDA:3738,_ZNSt8__detail4_ModImLm624ELm1ELm0ELb1ELb1EE6__calcEm
FN:135,_ZNSt8__detail4_ModImLm4294967296ELm1ELm0ELb1ELb1EE6__calcEm
FNDA:3744,_ZNSt8__detail4_ModImLm4294967296ELm1ELm0ELb1ELb1EE6__calcEm
FN:146,_ZNSt8__detail5__modImLm624ELm1ELm0EEET_S1_
FNDA:3738,_ZNSt8__detail5__modImLm624ELm1ELm0EEET_S1_
FN:146,_ZNSt8__detail5__modImLm4294967296ELm1ELm0EEET_S1_
FNDA:3744,_ZNSt8__detail5__modImLm4294967296ELm1ELm0EEET_S1_
FN:519,_ZNSt23mersenne_twister_engineImLm32ELm624ELm397ELm31ELm2567483615ELm11ELm4294967295ELm7ELm2636928640ELm15ELm4022730752ELm18ELm1812433253EEC2Em
FNDA:6,_ZNSt23mersenne_twister_engineImLm32ELm624ELm397ELm31ELm2567483615ELm11ELm4294967295ELm7ELm2636928640ELm15ELm4022730752ELm18ELm1812433253EEC2Em
DA:135,3738
DA:137,3738
DA:139,3738
DA:140,3738
DA:135,3744
DA:137,3744
DA:139,3744
DA:140,3744
DA:146,3738
DA:147,3738
DA:146,3744
DA:147,3744
DA:519,6
DA:520,6
end_of_record
SF:/usr/include/c++/9/bits/unique_ptr.h
FN:75,_ZNKSt14default_deleteINSt7__cxx1112basic_stringIcSt11char_traitsIcESaIcEEEEclEPS5_
FNDA:0,_ZNKSt14default_deleteINSt7__cxx1112basic_stringIcSt11char_traitsIcESaIcEEEEclEPS5_
FN:75,_ZNKSt14default_deleteINSt7__cxx1118basic_stringstreamIcSt11char_traitsIcESaIcEEEEclEPS5_
FNDA:0,_ZNKSt14default_deleteINSt7__cxx1118basic_stringstreamIcSt11char_traitsIcESaIcEEEEclEPS5_
FN:146,_ZNSt15__uniq_ptr_implINSt7__cxx1112basic_stringIcSt11char_traitsIcESaIcEEESt14default_deleteIS5_EEC2Ev
FNDA:4,_ZNSt15__uniq_ptr_implINSt7__cxx1112basic_stringIcSt11char_traitsIcESaIcEEESt14default_deleteIS5_EEC2Ev
FN:153,_ZNSt15__uniq_ptr_implINSt7__cxx1112basic_stringIcSt11char_traitsIcESaIcEEESt14default_deleteIS5_EE6_M_ptrEv
FNDA:13,_ZNSt15__uniq_ptr_implINSt7__cxx1112basic_stringIcSt11char_traitsIcESaIcEEESt14default_deleteIS5_EE6_M_ptrEv
FN:153,_ZNSt15__uniq_ptr_implINSt7__cxx1118basic_stringstreamIcSt11char_traitsIcESaIcEEESt14default_deleteIS5_EE6_M_ptrEv
FNDA:0,_ZNSt15__uniq_ptr_implINSt7__cxx1118basic_stringstreamIcSt11char_traitsIcESaIcEEESt14default_deleteIS5_EE6_M_ptrEv
FN:154,_ZNKSt15__uniq_ptr_implINSt7__cxx1118basic_stringstreamIcSt11char_traitsIcESaIcEEESt14default_deleteIS5_EE6_M_ptrEv
FNDA:0,_ZNKSt15__uniq_ptr_implINSt7__cxx1118basic_stringstreamIcSt11char_traitsIcESaIcEEESt14default_deleteIS5_EE6_M_ptrEv
FN:154,_ZNKSt15__uniq_ptr_implINSt7__cxx1112basic_stringIcSt11char_traitsIcESaIcEEESt14default_deleteIS5_EE6_M_ptrEv
FNDA:0,_ZNKSt15__uniq_ptr_implINSt7__cxx1112basic_stringIcSt11char_traitsIcESaIcEEESt14default_deleteIS5_EE6_M_ptrEv
FN:155,_ZNSt15__uniq_ptr_implINSt7__cxx1118basic_stringstreamIcSt11char_traitsIcESaIcEEESt14default_deleteIS5_EE10_M_deleterEv
FNDA:0,_ZNSt15__uniq_ptr_implINSt7__cxx1118basic_stringstreamIcSt11char_traitsIcESaIcEEESt14default_deleteIS5_EE10_M_deleterEv
FN:155,_ZNSt15__uniq_ptr_implINSt7__cxx1112basic_stringIcSt11char_traitsIcESaIcEEESt14default_deleteIS5_EE10_M_deleterEv
FNDA:0,_ZNSt15__uniq_ptr_implINSt7__cxx1112basic_stringIcSt11char_traitsIcESaIcEEESt14default_deleteIS5_EE10_M_deleterEv
FN:199,_ZNSt10unique_ptrINSt7__cxx1112basic_stringIcSt11char_traitsIcESaIcEEESt14default_deleteIS5_EEC2IS7_vEEv
FNDA:4,_ZNSt10unique_ptrINSt7__cxx1112basic_stringIcSt11char_traitsIcESaIcEEESt14default_deleteIS5_EEC2IS7_vEEv
FN:286,_ZNSt10unique_ptrINSt7__cxx1118basic_stringstreamIcSt11char_traitsIcESaIcEEESt14default_deleteIS5_EED2Ev
FNDA:0,_ZNSt10unique_ptrINSt7__cxx1118basic_stringstreamIcSt11char_traitsIcESaIcEEESt14default_deleteIS5_EED2Ev
FN:286,_ZNSt10unique_ptrINSt7__cxx1112basic_stringIcSt11char_traitsIcESaIcEEESt14default_deleteIS5_EED2Ev
FNDA:13,_ZNSt10unique_ptrINSt7__cxx1112basic_stringIcSt11char_traitsIcESaIcEEESt14default_deleteIS5_EED2Ev
FN:344,_ZNKSt10unique_ptrINSt7__cxx1118basic_stringstreamIcSt11char_traitsIcESaIcEEESt14default_deleteIS5_EEdeEv
FNDA:0,_ZNKSt10unique_ptrINSt7__cxx1118basic_stringstreamIcSt11char_traitsIcESaIcEEESt14default_deleteIS5_EEdeEv
FN:352,_ZNKSt10unique_ptrINSt7__cxx1112basic_stringIcSt11char_traitsIcESaIcEEESt14default_deleteIS5_EEptEv
FNDA:0,_ZNKSt10unique_ptrINSt7__cxx1112basic_stringIcSt11char_traitsIcESaIcEEESt14default_deleteIS5_EEptEv
FN:360,_ZNKSt10unique_ptrINSt7__cxx1118basic_stringstreamIcSt11char_traitsIcESaIcEEESt14default_deleteIS5_EE3getEv
FNDA:0,_ZNKSt10unique_ptrINSt7__cxx1118basic_stringstreamIcSt11char_traitsIcESaIcEEESt14default_deleteIS5_EE3getEv
FN:360,_ZNKSt10unique_ptrINSt7__cxx1112basic_stringIcSt11char_traitsIcESaIcEEESt14default_deleteIS5_EE3getEv
FNDA:0,_ZNKSt10unique_ptrINSt7__cxx1112basic_stringIcSt11char_traitsIcESaIcEEESt14default_deleteIS5_EE3getEv
FN:365,_ZNSt10unique_ptrINSt7__cxx1118basic_stringstreamIcSt11char_traitsIcESaIcEEESt14default_deleteIS5_EE11get_deleterEv
FNDA:0,_ZNSt10unique_ptrINSt7__cxx1118basic_stringstreamIcSt11char_traitsIcESaIcEEESt14default_deleteIS5_EE11get_deleterEv
FN:365,_ZNSt10unique_ptrINSt7__cxx1112basic_stringIcSt11char_traitsIcESaIcEEESt14default_deleteIS5_EE11get_deleterEv
FNDA:0,_ZNSt10unique_ptrINSt7__cxx1112basic_stringIcSt11char_traitsIcESaIcEEESt14default_deleteIS5_EE11get_deleterEv
FN:395,_ZNSt10unique_ptrINSt7__cxx1112basic_stringIcSt11char_traitsIcESaIcEEESt14default_deleteIS5_EE5resetEPS5_
FNDA:0,_ZNSt10unique_ptrINSt7__cxx1112basic_stringIcSt11char_traitsIcESaIcEEESt14default_deleteIS5_EE5resetEPS5_
DA:75,0
DA:81,0
DA:82,0
DA:75,0
DA:81,0
DA:82,0
DA:146,4
DA:153,13
DA:153,0
DA:154,0
DA:154,0
DA:155,0
DA:155,0
DA:199,4
DA:200,4
DA:201,4
DA:286,13
DA:290,13
DA:291,13
DA:292,0
DA:293,13
DA:294,13
DA:286,0
DA:290,0
DA:291,0
DA:292,0
DA:293,0
DA:294,0
DA:344,0
DA:347,0
DA:352,0
DA:355,0
DA:360,0
DA:361,0
DA:360,0
DA:361,0
DA:365,0
DA:366,0
DA:365,0
DA:366,0
DA:395,0
DA:400,0
DA:401,0
DA:402,0
DA:403,0
end_of_record
SF:/usr/include/c++/9/bits/stl_iterator_base_types.h
FN:205,_ZSt19__iterator_categoryIPcENSt15iterator_traitsIT_E17iterator_categoryERKS2_
FNDA:0,_ZSt19__iterator_categoryIPcENSt15iterator_traitsIT_E17iterator_categoryERKS2_
FN:205,_ZSt19__iterator_categoryIPKSt6vectorIcSaIcEEENSt15iterator_traitsIT_E17iterator_categoryERKS6_
FNDA:4,_ZSt19__iterator_categoryIPKSt6vectorIcSaIcEEENSt15iterator_traitsIT_E17iterator_categoryERKS6_
FN:205,_ZSt19__iterator_categoryIPKcENSt15iterator_traitsIT_E17iterator_categoryERKS3_
FNDA:36,_ZSt19__iterator_categoryIPKcENSt15iterator_traitsIT_E17iterator_categoryERKS3_
FN:205,_ZSt19__iterator_categoryIPKiENSt15iterator_traitsIT_E17iterator_categoryERKS3_
FNDA:2,_ZSt19__iterator_categoryIPKiENSt15iterator_traitsIT_E17iterator_categoryERKS3_
DA:205,0
DA:206,0
DA:205,4
DA:206,4
DA:205,36
DA:206,36
DA:205,2
DA:206,2
end_of_record
SF:/usr/include/c++/9/bits/stl_construct.h
FN:74,_ZSt10_ConstructISt4pairIiiEJS1_EEvPT_DpOT0_
FNDA:0,_ZSt10_ConstructISt4pairIiiEJS1_EEvPT_DpOT0_
FN:74,_ZSt10_ConstructISt6vectorIS0_IcSaIcEESaIS2_EEJS4_EEvPT_DpOT0_
FNDA:0,_ZSt10_ConstructISt6vectorIS0_IcSaIcEESaIS2_EEJS4_EEvPT_DpOT0_
FN:74,_ZSt10_ConstructISt6vectorIS0_IcSaIcEESaIS2_EEJRKS4_EEvPT_DpOT0_
FNDA:107,_ZSt10_ConstructISt6vectorIS0_IcSaIcEESaIS2_EEJRKS4_EEvPT_DpOT0_
FN:74,_ZSt10_ConstructISt6vectorIcSaIcEEJRKS2_EEvPT_DpOT0_
FNDA:3870,_ZSt10_ConstructISt6vectorIcSaIcEEJRKS2_EEvPT_DpOT0_
FN:74,_ZSt10_ConstructISt6vectorIcSaIcEEJS2_EEvPT_DpOT0_
FNDA:0,_ZSt10_ConstructISt6vectorIcSaIcEEJS2_EEvPT_DpOT0_
FN:97,_ZSt8_DestroyISt6vectorIcSaIcEEEvPT_
FNDA:3870,_ZSt8_DestroyISt6vectorIcSaIcEEEvPT_
FN:97,_ZSt8_DestroyISt6vectorIS0_IcSaIcEESaIS2_EEEvPT_
FNDA:214,_ZSt8_DestroyISt6vectorIS0_IcSaIcEESaIS2_EEEvPT_
FN:105,_ZNSt12_Destroy_auxILb0EE9__destroyIPSt6vectorIS2_IcSaIcEESaIS4_EEEEvT_S8_
FNDA:214,_ZNSt12_Destroy_auxILb0EE9__destroyIPSt6vectorIS2_IcSaIcEESaIS4_EEEEvT_S8_
FN:105,_ZNSt12_Destroy_auxILb0EE9__destroyIPSt6vectorIcSaIcEEEEvT_S6_
FNDA:432,_ZNSt12_Destroy_auxILb0EE9__destroyIPSt6vectorIcSaIcEEEEvT_S6_
FN:117,_ZNSt12_Destroy_auxILb1EE9__destroyIPiEEvT_S3_
FNDA:9,_ZNSt12_Destroy_auxILb1EE9__destroyIPiEEvT_S3_
FN:117,_ZNSt12_Destroy_auxILb1EE9__destroyIPSt4pairIiiEEEvT_S5_
FNDA:110,_ZNSt12_Destroy_auxILb1EE9__destroyIPSt4pairIiiEEEvT_S5_
FN:117,_ZNSt12_Destroy_auxILb1EE9__destroyIPcEEvT_S3_
FNDA:3911,_ZNSt12_Destroy_auxILb1EE9__destroyIPcEEvT_S3_
FN:127,_ZSt8_DestroyIPcEvT_S1_
FNDA:3911,_ZSt8_DestroyIPcEvT_S1_
FN:127,_ZSt8_DestroyIPiEvT_S1_
FNDA:9,_ZSt8_DestroyIPiEvT_S1_
FN:127,_ZSt8_DestroyIPSt6vectorIcSaIcEEEvT_S4_
FNDA:432,_ZSt8_DestroyIPSt6vectorIcSaIcEEEvT_S4_
FN:127,_ZSt8_DestroyIPSt4pairIiiEEvT_S3_
FNDA:110,_ZSt8_DestroyIPSt4pairIiiEEvT_S3_
FN:127,_ZSt8_DestroyIPSt6vectorIS0_IcSaIcEESaIS2_EEEvT_S6_
FNDA:214,_ZSt8_DestroyIPSt6vectorIS0_IcSaIcEESaIS2_EEEvT_S6_
FN:203,_ZSt8_DestroyIPccEvT_S1_RSaIT0_E
FNDA:3911,_ZSt8_DestroyIPccEvT_S1_RSaIT0_E
FN:203,_ZSt8_DestroyIPiiEvT_S1_RSaIT0_E
FNDA:9,_ZSt8_DestroyIPiiEvT_S1_RSaIT0_E
FN:203,_ZSt8_DestroyIPSt6vectorIcSaIcEES2_EvT_S4_RSaIT0_E
FNDA:432,_ZSt8_DestroyIPSt6vectorIcSaIcEES2_EvT_S4_RSaIT0_E
FN:203,_ZSt8_DestroyIPSt4pairIiiES1_EvT_S3_RSaIT0_E
FNDA:110,_ZSt8_DestroyIPSt4pairIiiES1_EvT_S3_RSaIT0_E
FN:203,_ZSt8_DestroyIPSt6vectorIS0_IcSaIcEESaIS2_EES4_EvT_S6_RSaIT0_E
FNDA:214,_ZSt8_DestroyIPSt6vectorIS0_IcSaIcEESaIS2_EES4_EvT_S6_RSaIT0_E
DA:74,0
DA:75,0
DA:74,0
DA:75,0
DA:74,0
DA:75,0
DA:74,107
DA:75,107
DA:74,3870
DA:75,3870
DA:97,3870
DA:98,3870
DA:97,214
DA:98,214
DA:105,4302
DA:107,4302
DA:108,3870
DA:109,432
DA:105,428
DA:107,428
DA:108,214
DA:109,214
DA:117,3911
DA:117,9
DA:117,110
DA:127,3911
DA:137,3911
DA:138,3911
DA:127,9
DA:137,9
DA:138,9
DA:127,432
DA:137,432
DA:138,432
DA:127,110
DA:137,110
DA:138,110
DA:127,214
DA:137,214
DA:138,214
DA:203,3911
DA:206,3911
DA:207,3911
DA:203,9
DA:206,9
DA:207,9
DA:203,432
DA:206,432
DA:207,432
DA:203,110
DA:206,110
DA:207,110
DA:203,214
DA:206,214
DA:207,214
end_of_record
SF:/usr/include/c++/9/ext/alloc_traits.h
FN:97,_ZN9__gnu_cxx14__alloc_traitsISaIiEiE17_S_select_on_copyERKS1_
FNDA:1,_ZN9__gnu_cxx14__alloc_traitsISaIiEiE17_S_select_on_copyERKS1_
FN:97,_ZN9__gnu_cxx14__alloc_traitsISaISt6vectorIS1_IcSaIcEESaIS3_EEES5_E17_S_select_on_copyERKS6_
FNDA:103,_ZN9__gnu_cxx14__alloc_traitsISaISt6vectorIS1_IcSaIcEESaIS3_EEES5_E17_S_select_on_copyERKS6_
FN:97,_ZN9__gnu_cxx14__alloc_traitsISaISt6vectorIcSaIcEEES3_E17_S_select_on_copyERKS4_
FNDA:421,_ZN9__gnu_cxx14__alloc_traitsISaISt6vectorIcSaIcEEES3_E17_S_select_on_copyERKS4_
FN:97,_ZN9__gnu_cxx14__alloc_traitsISaIcEcE17_S_select_on_copyERKS1_
FNDA:3870,_ZN9__gnu_cxx14__alloc_traitsISaIcEcE17_S_select_on_copyERKS1_
DA:97,1
DA:98,1
DA:97,103
DA:98,103
DA:97,421
DA:98,421
DA:97,3870
DA:98,3870
end_of_record
SF:/usr/include/c++/9/bits/cpp_type_traits.h
FN:428,_ZSt12__miter_baseIPcET_S1_
FNDA:0,_ZSt12__miter_baseIPcET_S1_
FN:428,_ZSt12__miter_baseIPKcET_S2_
FNDA:72,_ZSt12__miter_baseIPKcET_S2_
FN:428,_ZSt12__miter_baseIPKiET_S2_
FNDA:4,_ZSt12__miter_baseIPKiET_S2_
FN:428,_ZSt12__miter_baseIN9__gnu_cxx17__normal_iteratorIPKiSt6vectorIiSaIiEEEEET_S8_
FNDA:2,_ZSt12__miter_baseIN9__gnu_cxx17__normal_iteratorIPKiSt6vectorIiSaIiEEEEET_S8_
FN:428,_ZSt12__miter_baseIN9__gnu_cxx17__normal_iteratorIPKcSt6vectorIcSaIcEEEEET_S8_
FNDA:7740,_ZSt12__miter_baseIN9__gnu_cxx17__normal_iteratorIPKcSt6vectorIcSaIcEEEEET_S8_
DA:428,0
DA:429,0
DA:428,72
DA:429,72
DA:428,4
DA:429,4
DA:428,2
DA:429,2
DA:428,7740
DA:429,7740
end_of_record
SF:/usr/include/c++/9/bits/allocator.h
FN:137,_ZNSaISt4pairIiiEEC2Ev
FNDA:10,_ZNSaISt4pairIiiEEC2Ev
FN:137,_ZNSaISt6vectorIS_IcSaIcEESaIS1_EEEC2Ev
FNDA:11,_ZNSaISt6vectorIS_IcSaIcEESaIS1_EEEC2Ev
FN:137,_ZNSaISt6vectorIcSaIcEEEC2Ev
FNDA:9,_ZNSaISt6vectorIcSaIcEEEC2Ev
FN:137,_ZNSaIiEC2Ev
FNDA:8,_ZNSaIiEC2Ev
FN:140,_ZNSaISt6vectorIS_IcSaIcEESaIS1_EEEC2ERKS4_
FNDA:206,_ZNSaISt6vectorIS_IcSaIcEESaIS1_EEEC2ERKS4_
FN:140,_ZNSaISt6vectorIcSaIcEEEC2ERKS2_
FNDA:862,_ZNSaISt6vectorIcSaIcEEEC2ERKS2_
FN:140,_ZNSaIiEC2ERKS_
FNDA:18,_ZNSaIiEC2ERKS_
FN:152,_ZNSaISt6vectorIcSaIcEEED2Ev
FNDA:871,_ZNSaISt6vectorIcSaIcEEED2Ev
FN:152,_ZNSaIiED2Ev
FNDA:26,_ZNSaIiED2Ev
FN:152,_ZNSaISt4pairIiiEED2Ev
FNDA:10,_ZNSaISt4pairIiiEED2Ev
FN:152,_ZNSaISt6vectorIS_IcSaIcEESaIS1_EEED2Ev
FNDA:217,_ZNSaISt6vectorIS_IcSaIcEESaIS1_EEED2Ev
DA:137,10
DA:137,11
DA:137,9
DA:137,8
DA:140,206
DA:141,206
DA:140,862
DA:141,862
DA:140,18
DA:141,18
DA:152,871
DA:152,26
DA:152,10
DA:152,217
end_of_record
SF:/usr/include/c++/9/bits/char_traits.h
FN:336,_ZNSt11char_traitsIcE6lengthEPKc
FNDA:0,_ZNSt11char_traitsIcE6lengthEPKc
DA:336,0
DA:342,0
end_of_record
SF:/usr/include/gtest/internal/gtest-internal.h
FN:442,_ZN7testing8internal15TestFactoryBaseD2Ev
FNDA:10,_ZN7testing8internal15TestFactoryBaseD2Ev
FN:442,_ZN7testing8internal15TestFactoryBaseD0Ev
FNDA:0,_ZN7testing8internal15TestFactoryBaseD0Ev
FN:449,_ZN7testing8internal15TestFactoryBaseC2Ev
FNDA:10,_ZN7testing8internal15TestFactoryBaseC2Ev
FN:460,_ZN7testing8internal15TestFactoryImplI29CopySquareTest_ValidCopy_TestE10CreateTestEv
FNDA:1,_ZN7testing8internal15TestFactoryImplI29CopySquareTest_ValidCopy_TestE10CreateTestEv
FN:460,_ZN7testing8internal15TestFactoryImplI31CopySquareTest_InvalidCopy_TestE10CreateTestEv
FNDA:1,_ZN7testing8internal15TestFactoryImplI31CopySquareTest_InvalidCopy_TestE10CreateTestEv
FN:460,_ZN7testing8internal15TestFactoryImplI28SudokuTest_GenerateGame_TestE10CreateTestEv
FNDA:1,_ZN7testing8internal15TestFactoryImplI28SudokuTest_GenerateGame_TestE10CreateTestEv
FN:460,_ZN7testing8internal15TestFactoryImplI35GenerateBoardTest_InvalidBoard_TestE10CreateTestEv
FNDA:1,_ZN7testing8internal15TestFactoryImplI35GenerateBoardTest_InvalidBoard_TestE10CreateTestEv
FN:460,_ZN7testing8internal15TestFactoryImplI33GenerateBoardTest_ValidBoard_TestE10CreateTestEv
FNDA:1,_ZN7testing8internal15TestFactoryImplI33GenerateBoardTest_ValidBoard_TestE10CreateTestEv
FN:460,_ZN7testing8internal15TestFactoryImplI29GetRand9Test_RandomOrder_TestE10CreateTestEv
FNDA:1,_ZN7testing8internal15TestFactoryImplI29GetRand9Test_RandomOrder_TestE10CreateTestEv
FN:460,_ZN7testing8internal15TestFactoryImplI32CheckBoardTest_InvalidBoard_TestE10CreateTestEv
FNDA:1,_ZN7testing8internal15TestFactoryImplI32CheckBoardTest_InvalidBoard_TestE10CreateTestEv
FN:460,_ZN7testing8internal15TestFactoryImplI30CheckBoardTest_ValidBoard_TestE10CreateTestEv
FNDA:1,_ZN7testing8internal15TestFactoryImplI30CheckBoardTest_ValidBoard_TestE10CreateTestEv
FN:460,_ZN7testing8internal15TestFactoryImplI31SudokuPlayerTest_AddResult_TestE10CreateTestEv
FNDA:1,_ZN7testing8internal15TestFactoryImplI31SudokuPlayerTest_AddResult_TestE10CreateTestEv
FN:460,_ZN7testing8internal15TestFactoryImplI33SudokuPlayerTest_SolveSudoku_TestE10CreateTestEv
FNDA:1,_ZN7testing8internal15TestFactoryImplI33SudokuPlayerTest_SolveSudoku_TestE10CreateTestEv
FN:481,_ZN7testing8internal12CodeLocationC2ERKNSt7__cxx1112basic_stringIcSt11char_traitsIcESaIcEEEi
FNDA:10,_ZN7testing8internal12CodeLocationC2ERKNSt7__cxx1112basic_stringIcSt11char_traitsIcESaIcEEEi
FN:494,_ZN7testing8internal19GetNotDefaultOrNullEPFvvES2_
FNDA:40,_ZN7testing8internal19GetNotDefaultOrNullEPFvvES2_
FN:509,_ZN7testing8internal16SuiteApiResolverINS_4TestEE19GetSetUpCaseOrSuiteEPKci
FNDA:10,_ZN7testing8internal16SuiteApiResolverINS_4TestEE19GetSetUpCaseOrSuiteEPKci
FN:524,_ZN7testing8internal16SuiteApiResolverINS_4TestEE22GetTearDownCaseOrSuiteEPKci
FNDA:10,_ZN7testing8internal16SuiteApiResolverINS_4TestEE22GetTearDownCaseOrSuiteEPKci
DA:442,0
DA:442,10
DA:449,10
DA:460,1
DA:460,1
DA:460,1
DA:460,1
DA:460,1
DA:460,1
DA:460,1
DA:460,1
DA:460,1
DA:460,1
DA:481,10
DA:482,10
DA:494,40
DA:496,40
DA:509,10
DA:512,10
DA:514,10
DA:516,10
DA:519,0
DA:521,10
DA:524,10
DA:527,10
DA:529,10
DA:531,10
DA:534,0
DA:536,10
end_of_record
SF:/home/juruo/software/gTest.cpp
FN:8,_ZN28SudokuTest_GenerateGame_TestC2Ev
FNDA:1,_ZN28SudokuTest_GenerateGame_TestC2Ev
FN:8,_ZN28SudokuTest_GenerateGame_Test8TestBodyEv
FNDA:1,_ZN28SudokuTest_GenerateGame_Test8TestBodyEv
FN:47,_ZN33SudokuPlayerTest_SolveSudoku_TestC2Ev
FNDA:1,_ZN33SudokuPlayerTest_SolveSudoku_TestC2Ev
FN:47,_ZN33SudokuPlayerTest_SolveSudoku_Test8TestBodyEv
FNDA:1,_ZN33SudokuPlayerTest_SolveSudoku_Test8TestBodyEv
FN:73,_ZN31SudokuPlayerTest_AddResult_TestC2Ev
FNDA:1,_ZN31SudokuPlayerTest_AddResult_TestC2Ev
FN:73,_ZN31SudokuPlayerTest_AddResult_Test8TestBodyEv
FNDA:1,_ZN31SudokuPlayerTest_AddResult_Test8TestBodyEv
FN:101,_ZN30CheckBoardTest_ValidBoard_TestC2Ev
FNDA:1,_ZN30CheckBoardTest_ValidBoard_TestC2Ev
FN:101,_ZN30CheckBoardTest_ValidBoard_Test8TestBodyEv
FNDA:1,_ZN30CheckBoardTest_ValidBoard_Test8TestBodyEv
FN:123,_ZN32CheckBoardTest_InvalidBoard_TestC2Ev
FNDA:1,_ZN32CheckBoardTest_InvalidBoard_TestC2Ev
FN:123,_ZN32CheckBoardTest_InvalidBoard_Test8TestBodyEv
FNDA:1,_ZN32CheckBoardTest_InvalidBoard_Test8TestBodyEv
FN:145,_ZN29GetRand9Test_RandomOrder_TestC2Ev
FNDA:1,_ZN29GetRand9Test_RandomOrder_TestC2Ev
FN:145,_ZN29GetRand9Test_RandomOrder_Test8TestBodyEv
FNDA:1,_ZN29GetRand9Test_RandomOrder_Test8TestBodyEv
FN:155,_Z16countFilledCellsRKSt6vectorIS_IcSaIcEESaIS1_EE
FNDA:2,_Z16countFilledCellsRKSt6vectorIS_IcSaIcEESaIS1_EE
FN:166,_ZN33GenerateBoardTest_ValidBoard_TestC2Ev
FNDA:1,_ZN33GenerateBoardTest_ValidBoard_TestC2Ev
FN:166,_ZN33GenerateBoardTest_ValidBoard_Test8TestBodyEv
FNDA:1,_ZN33GenerateBoardTest_ValidBoard_Test8TestBodyEv
FN:175,_ZN35GenerateBoardTest_InvalidBoard_TestC2Ev
FNDA:1,_ZN35GenerateBoardTest_InvalidBoard_TestC2Ev
FN:175,_ZN35GenerateBoardTest_InvalidBoard_Test8TestBodyEv
FNDA:1,_ZN35GenerateBoardTest_InvalidBoard_Test8TestBodyEv
FN:185,_ZN29CopySquareTest_ValidCopy_TestC2Ev
FNDA:1,_ZN29CopySquareTest_ValidCopy_TestC2Ev
FN:185,_ZN29CopySquareTest_ValidCopy_Test8TestBodyEv
FNDA:1,_ZN29CopySquareTest_ValidCopy_Test8TestBodyEv
FN:207,_ZN31CopySquareTest_InvalidCopy_TestC2Ev
FNDA:1,_ZN31CopySquareTest_InvalidCopy_TestC2Ev
FN:207,_ZN31CopySquareTest_InvalidCopy_Test8TestBodyEv
FNDA:1,_ZN31CopySquareTest_InvalidCopy_Test8TestBodyEv
FN:229,main
FNDA:1,main
DA:8,1
DA:10,1
DA:11,1
DA:12,1
DA:13,1
DA:14,1
DA:17,1
DA:18,1
DA:19,1
DA:20,1
DA:21,11
DA:23,10
DA:26,1
DA:27,1
DA:29,9
DA:32,0
DA:33,0
DA:34,0
DA:37,0
DA:38,0
DA:39,0
DA:43,1
DA:45,1
DA:8,1
DA:47,1
DA:50,2
DA:63,13
DA:66,2
DA:69,1
DA:72,1
DA:47,1
DA:73,1
DA:76,2
DA:89,13
DA:92,1
DA:95,2
DA:98,1
DA:99,1
DA:100,1
DA:73,1
DA:101,1
DA:103,1
DA:114,12
DA:117,1
DA:120,1
DA:101,1
DA:123,1
DA:125,1
DA:136,12
DA:139,1
DA:142,1
DA:123,1
DA:145,1
DA:146,1
DA:148,1
DA:151,1
DA:152,1
DA:145,1
DA:155,2
DA:156,2
DA:157,20
DA:158,180
DA:159,162
DA:160,102
DA:164,2
DA:166,1
DA:167,1
DA:169,1
DA:172,1
DA:173,1
DA:166,1
DA:175,1
DA:176,1
DA:178,1
DA:181,1
DA:182,1
DA:175,1
DA:185,1
DA:187,1
DA:188,2
DA:190,1
DA:191,4
DA:193,3
DA:194,3
DA:195,3
DA:198,1
DA:205,1
DA:185,1
DA:207,1
DA:209,1
DA:210,2
DA:212,1
DA:213,4
DA:215,3
DA:216,3
DA:217,3
DA:220,1
DA:227,1
DA:207,1
DA:229,1
DA:231,1
DA:232,1
end_of_record
